
HID_Keyboard_Device.elf:     file format elf32-littlearm

Sections:
Idx Name          Size      VMA       LMA       File off  Algn
  0 .isr_vector   000001c4  08000000  08000000  00010000  2**0
                  CONTENTS, ALLOC, LOAD, READONLY, DATA
  1 .text         00003160  080001c4  080001c4  000101c4  2**2
                  CONTENTS, ALLOC, LOAD, READONLY, CODE
  2 .rodata       00000078  08003324  08003324  00013324  2**0
                  CONTENTS, ALLOC, LOAD, READONLY, DATA
  3 .ARM          00000008  0800339c  0800339c  0001339c  2**2
                  CONTENTS, ALLOC, LOAD, READONLY, DATA
  4 .init_array   00000004  080033a4  080033a4  000133a4  2**2
                  CONTENTS, ALLOC, LOAD, DATA
  5 .fini_array   00000004  080033a8  080033a8  000133a8  2**2
                  CONTENTS, ALLOC, LOAD, DATA
  6 .data         000001e4  20000000  080033ac  00020000  2**2
                  CONTENTS, ALLOC, LOAD, DATA
  7 .bss          0000085c  200001e4  08003590  000201e4  2**2
                  ALLOC
  8 ._user_heap_stack 00000600  20000a40  08003590  00020a40  2**0
                  ALLOC
  9 .ARM.attributes 00000030  00000000  00000000  000201e4  2**0
                  CONTENTS, READONLY
 10 .debug_info   00017846  00000000  00000000  00020214  2**0
                  CONTENTS, READONLY, DEBUGGING
 11 .debug_abbrev 0000334e  00000000  00000000  00037a5a  2**0
                  CONTENTS, READONLY, DEBUGGING
 12 .debug_loc    00005bdd  00000000  00000000  0003ada8  2**0
                  CONTENTS, READONLY, DEBUGGING
 13 .debug_aranges 00000958  00000000  00000000  00040988  2**3
                  CONTENTS, READONLY, DEBUGGING
 14 .debug_ranges 00000a50  00000000  00000000  000412e0  2**3
                  CONTENTS, READONLY, DEBUGGING
 15 .debug_line   00005a14  00000000  00000000  00041d30  2**0
                  CONTENTS, READONLY, DEBUGGING
 16 .debug_str    00003732  00000000  00000000  00047744  2**0
                  CONTENTS, READONLY, DEBUGGING
 17 .comment      0000007c  00000000  00000000  0004ae76  2**0
                  CONTENTS, READONLY
 18 .debug_frame  00001904  00000000  00000000  0004aef4  2**2
                  CONTENTS, READONLY, DEBUGGING

Disassembly of section .text:

080001c4 <__do_global_dtors_aux>:
 80001c4:	b510      	push	{r4, lr}
 80001c6:	4c05      	ldr	r4, [pc, #20]	; (80001dc <__do_global_dtors_aux+0x18>)
 80001c8:	7823      	ldrb	r3, [r4, #0]
 80001ca:	b933      	cbnz	r3, 80001da <__do_global_dtors_aux+0x16>
 80001cc:	4b04      	ldr	r3, [pc, #16]	; (80001e0 <__do_global_dtors_aux+0x1c>)
 80001ce:	b113      	cbz	r3, 80001d6 <__do_global_dtors_aux+0x12>
 80001d0:	4804      	ldr	r0, [pc, #16]	; (80001e4 <__do_global_dtors_aux+0x20>)
 80001d2:	f3af 8000 	nop.w
 80001d6:	2301      	movs	r3, #1
 80001d8:	7023      	strb	r3, [r4, #0]
 80001da:	bd10      	pop	{r4, pc}
 80001dc:	200001e4 	.word	0x200001e4
 80001e0:	00000000 	.word	0x00000000
 80001e4:	0800330c 	.word	0x0800330c

080001e8 <frame_dummy>:
 80001e8:	b508      	push	{r3, lr}
 80001ea:	4b03      	ldr	r3, [pc, #12]	; (80001f8 <frame_dummy+0x10>)
 80001ec:	b11b      	cbz	r3, 80001f6 <frame_dummy+0xe>
 80001ee:	4903      	ldr	r1, [pc, #12]	; (80001fc <frame_dummy+0x14>)
 80001f0:	4803      	ldr	r0, [pc, #12]	; (8000200 <frame_dummy+0x18>)
 80001f2:	f3af 8000 	nop.w
 80001f6:	bd08      	pop	{r3, pc}
 80001f8:	00000000 	.word	0x00000000
 80001fc:	200001e8 	.word	0x200001e8
 8000200:	0800330c 	.word	0x0800330c

08000204 <__aeabi_uldivmod>:
 8000204:	b953      	cbnz	r3, 800021c <__aeabi_uldivmod+0x18>
 8000206:	b94a      	cbnz	r2, 800021c <__aeabi_uldivmod+0x18>
 8000208:	2900      	cmp	r1, #0
 800020a:	bf08      	it	eq
 800020c:	2800      	cmpeq	r0, #0
 800020e:	bf1c      	itt	ne
 8000210:	f04f 31ff 	movne.w	r1, #4294967295
 8000214:	f04f 30ff 	movne.w	r0, #4294967295
 8000218:	f000 b97a 	b.w	8000510 <__aeabi_idiv0>
 800021c:	f1ad 0c08 	sub.w	ip, sp, #8
 8000220:	e96d ce04 	strd	ip, lr, [sp, #-16]!
 8000224:	f000 f806 	bl	8000234 <__udivmoddi4>
 8000228:	f8dd e004 	ldr.w	lr, [sp, #4]
 800022c:	e9dd 2302 	ldrd	r2, r3, [sp, #8]
 8000230:	b004      	add	sp, #16
 8000232:	4770      	bx	lr

08000234 <__udivmoddi4>:
 8000234:	e92d 47f0 	stmdb	sp!, {r4, r5, r6, r7, r8, r9, sl, lr}
 8000238:	468c      	mov	ip, r1
 800023a:	460d      	mov	r5, r1
 800023c:	4604      	mov	r4, r0
 800023e:	9e08      	ldr	r6, [sp, #32]
 8000240:	2b00      	cmp	r3, #0
 8000242:	d151      	bne.n	80002e8 <__udivmoddi4+0xb4>
 8000244:	428a      	cmp	r2, r1
 8000246:	4617      	mov	r7, r2
 8000248:	d96d      	bls.n	8000326 <__udivmoddi4+0xf2>
 800024a:	fab2 fe82 	clz	lr, r2
 800024e:	f1be 0f00 	cmp.w	lr, #0
 8000252:	d00b      	beq.n	800026c <__udivmoddi4+0x38>
 8000254:	f1ce 0c20 	rsb	ip, lr, #32
 8000258:	fa01 f50e 	lsl.w	r5, r1, lr
 800025c:	fa20 fc0c 	lsr.w	ip, r0, ip
 8000260:	fa02 f70e 	lsl.w	r7, r2, lr
 8000264:	ea4c 0c05 	orr.w	ip, ip, r5
 8000268:	fa00 f40e 	lsl.w	r4, r0, lr
 800026c:	ea4f 4a17 	mov.w	sl, r7, lsr #16
 8000270:	0c25      	lsrs	r5, r4, #16
 8000272:	fbbc f8fa 	udiv	r8, ip, sl
 8000276:	fa1f f987 	uxth.w	r9, r7
 800027a:	fb0a cc18 	mls	ip, sl, r8, ip
 800027e:	ea45 450c 	orr.w	r5, r5, ip, lsl #16
 8000282:	fb08 f309 	mul.w	r3, r8, r9
 8000286:	42ab      	cmp	r3, r5
 8000288:	d90a      	bls.n	80002a0 <__udivmoddi4+0x6c>
 800028a:	19ed      	adds	r5, r5, r7
 800028c:	f108 32ff 	add.w	r2, r8, #4294967295
 8000290:	f080 8123 	bcs.w	80004da <__udivmoddi4+0x2a6>
 8000294:	42ab      	cmp	r3, r5
 8000296:	f240 8120 	bls.w	80004da <__udivmoddi4+0x2a6>
 800029a:	f1a8 0802 	sub.w	r8, r8, #2
 800029e:	443d      	add	r5, r7
 80002a0:	1aed      	subs	r5, r5, r3
 80002a2:	b2a4      	uxth	r4, r4
 80002a4:	fbb5 f0fa 	udiv	r0, r5, sl
 80002a8:	fb0a 5510 	mls	r5, sl, r0, r5
 80002ac:	ea44 4405 	orr.w	r4, r4, r5, lsl #16
 80002b0:	fb00 f909 	mul.w	r9, r0, r9
 80002b4:	45a1      	cmp	r9, r4
 80002b6:	d909      	bls.n	80002cc <__udivmoddi4+0x98>
 80002b8:	19e4      	adds	r4, r4, r7
 80002ba:	f100 33ff 	add.w	r3, r0, #4294967295
 80002be:	f080 810a 	bcs.w	80004d6 <__udivmoddi4+0x2a2>
 80002c2:	45a1      	cmp	r9, r4
 80002c4:	f240 8107 	bls.w	80004d6 <__udivmoddi4+0x2a2>
 80002c8:	3802      	subs	r0, #2
 80002ca:	443c      	add	r4, r7
 80002cc:	eba4 0409 	sub.w	r4, r4, r9
 80002d0:	ea40 4008 	orr.w	r0, r0, r8, lsl #16
 80002d4:	2100      	movs	r1, #0
 80002d6:	2e00      	cmp	r6, #0
 80002d8:	d061      	beq.n	800039e <__udivmoddi4+0x16a>
 80002da:	fa24 f40e 	lsr.w	r4, r4, lr
 80002de:	2300      	movs	r3, #0
 80002e0:	6034      	str	r4, [r6, #0]
 80002e2:	6073      	str	r3, [r6, #4]
 80002e4:	e8bd 87f0 	ldmia.w	sp!, {r4, r5, r6, r7, r8, r9, sl, pc}
 80002e8:	428b      	cmp	r3, r1
 80002ea:	d907      	bls.n	80002fc <__udivmoddi4+0xc8>
 80002ec:	2e00      	cmp	r6, #0
 80002ee:	d054      	beq.n	800039a <__udivmoddi4+0x166>
 80002f0:	2100      	movs	r1, #0
 80002f2:	e886 0021 	stmia.w	r6, {r0, r5}
 80002f6:	4608      	mov	r0, r1
 80002f8:	e8bd 87f0 	ldmia.w	sp!, {r4, r5, r6, r7, r8, r9, sl, pc}
 80002fc:	fab3 f183 	clz	r1, r3
 8000300:	2900      	cmp	r1, #0
 8000302:	f040 808e 	bne.w	8000422 <__udivmoddi4+0x1ee>
 8000306:	42ab      	cmp	r3, r5
 8000308:	d302      	bcc.n	8000310 <__udivmoddi4+0xdc>
 800030a:	4282      	cmp	r2, r0
 800030c:	f200 80fa 	bhi.w	8000504 <__udivmoddi4+0x2d0>
 8000310:	1a84      	subs	r4, r0, r2
 8000312:	eb65 0503 	sbc.w	r5, r5, r3
 8000316:	2001      	movs	r0, #1
 8000318:	46ac      	mov	ip, r5
 800031a:	2e00      	cmp	r6, #0
 800031c:	d03f      	beq.n	800039e <__udivmoddi4+0x16a>
 800031e:	e886 1010 	stmia.w	r6, {r4, ip}
 8000322:	e8bd 87f0 	ldmia.w	sp!, {r4, r5, r6, r7, r8, r9, sl, pc}
 8000326:	b912      	cbnz	r2, 800032e <__udivmoddi4+0xfa>
 8000328:	2701      	movs	r7, #1
 800032a:	fbb7 f7f2 	udiv	r7, r7, r2
 800032e:	fab7 fe87 	clz	lr, r7
 8000332:	f1be 0f00 	cmp.w	lr, #0
 8000336:	d134      	bne.n	80003a2 <__udivmoddi4+0x16e>
 8000338:	1beb      	subs	r3, r5, r7
 800033a:	0c3a      	lsrs	r2, r7, #16
 800033c:	fa1f fc87 	uxth.w	ip, r7
 8000340:	2101      	movs	r1, #1
 8000342:	fbb3 f8f2 	udiv	r8, r3, r2
 8000346:	0c25      	lsrs	r5, r4, #16
 8000348:	fb02 3318 	mls	r3, r2, r8, r3
 800034c:	ea45 4503 	orr.w	r5, r5, r3, lsl #16
 8000350:	fb0c f308 	mul.w	r3, ip, r8
 8000354:	42ab      	cmp	r3, r5
 8000356:	d907      	bls.n	8000368 <__udivmoddi4+0x134>
 8000358:	19ed      	adds	r5, r5, r7
 800035a:	f108 30ff 	add.w	r0, r8, #4294967295
 800035e:	d202      	bcs.n	8000366 <__udivmoddi4+0x132>
 8000360:	42ab      	cmp	r3, r5
 8000362:	f200 80d1 	bhi.w	8000508 <__udivmoddi4+0x2d4>
 8000366:	4680      	mov	r8, r0
 8000368:	1aed      	subs	r5, r5, r3
 800036a:	b2a3      	uxth	r3, r4
 800036c:	fbb5 f0f2 	udiv	r0, r5, r2
 8000370:	fb02 5510 	mls	r5, r2, r0, r5
 8000374:	ea43 4405 	orr.w	r4, r3, r5, lsl #16
 8000378:	fb0c fc00 	mul.w	ip, ip, r0
 800037c:	45a4      	cmp	ip, r4
 800037e:	d907      	bls.n	8000390 <__udivmoddi4+0x15c>
 8000380:	19e4      	adds	r4, r4, r7
 8000382:	f100 33ff 	add.w	r3, r0, #4294967295
 8000386:	d202      	bcs.n	800038e <__udivmoddi4+0x15a>
 8000388:	45a4      	cmp	ip, r4
 800038a:	f200 80b8 	bhi.w	80004fe <__udivmoddi4+0x2ca>
 800038e:	4618      	mov	r0, r3
 8000390:	eba4 040c 	sub.w	r4, r4, ip
 8000394:	ea40 4008 	orr.w	r0, r0, r8, lsl #16
 8000398:	e79d      	b.n	80002d6 <__udivmoddi4+0xa2>
 800039a:	4631      	mov	r1, r6
 800039c:	4630      	mov	r0, r6
 800039e:	e8bd 87f0 	ldmia.w	sp!, {r4, r5, r6, r7, r8, r9, sl, pc}
 80003a2:	f1ce 0420 	rsb	r4, lr, #32
 80003a6:	fa05 f30e 	lsl.w	r3, r5, lr
 80003aa:	fa07 f70e 	lsl.w	r7, r7, lr
 80003ae:	fa20 f804 	lsr.w	r8, r0, r4
 80003b2:	0c3a      	lsrs	r2, r7, #16
 80003b4:	fa25 f404 	lsr.w	r4, r5, r4
 80003b8:	ea48 0803 	orr.w	r8, r8, r3
 80003bc:	fbb4 f1f2 	udiv	r1, r4, r2
 80003c0:	ea4f 4518 	mov.w	r5, r8, lsr #16
 80003c4:	fb02 4411 	mls	r4, r2, r1, r4
 80003c8:	fa1f fc87 	uxth.w	ip, r7
 80003cc:	ea45 4504 	orr.w	r5, r5, r4, lsl #16
 80003d0:	fb01 f30c 	mul.w	r3, r1, ip
 80003d4:	42ab      	cmp	r3, r5
 80003d6:	fa00 f40e 	lsl.w	r4, r0, lr
 80003da:	d909      	bls.n	80003f0 <__udivmoddi4+0x1bc>
 80003dc:	19ed      	adds	r5, r5, r7
 80003de:	f101 30ff 	add.w	r0, r1, #4294967295
 80003e2:	f080 808a 	bcs.w	80004fa <__udivmoddi4+0x2c6>
 80003e6:	42ab      	cmp	r3, r5
 80003e8:	f240 8087 	bls.w	80004fa <__udivmoddi4+0x2c6>
 80003ec:	3902      	subs	r1, #2
 80003ee:	443d      	add	r5, r7
 80003f0:	1aeb      	subs	r3, r5, r3
 80003f2:	fa1f f588 	uxth.w	r5, r8
 80003f6:	fbb3 f0f2 	udiv	r0, r3, r2
 80003fa:	fb02 3310 	mls	r3, r2, r0, r3
 80003fe:	ea45 4503 	orr.w	r5, r5, r3, lsl #16
 8000402:	fb00 f30c 	mul.w	r3, r0, ip
 8000406:	42ab      	cmp	r3, r5
 8000408:	d907      	bls.n	800041a <__udivmoddi4+0x1e6>
 800040a:	19ed      	adds	r5, r5, r7
 800040c:	f100 38ff 	add.w	r8, r0, #4294967295
 8000410:	d26f      	bcs.n	80004f2 <__udivmoddi4+0x2be>
 8000412:	42ab      	cmp	r3, r5
 8000414:	d96d      	bls.n	80004f2 <__udivmoddi4+0x2be>
 8000416:	3802      	subs	r0, #2
 8000418:	443d      	add	r5, r7
 800041a:	1aeb      	subs	r3, r5, r3
 800041c:	ea40 4101 	orr.w	r1, r0, r1, lsl #16
 8000420:	e78f      	b.n	8000342 <__udivmoddi4+0x10e>
 8000422:	f1c1 0720 	rsb	r7, r1, #32
 8000426:	fa22 f807 	lsr.w	r8, r2, r7
 800042a:	408b      	lsls	r3, r1
 800042c:	fa05 f401 	lsl.w	r4, r5, r1
 8000430:	ea48 0303 	orr.w	r3, r8, r3
 8000434:	fa20 fe07 	lsr.w	lr, r0, r7
 8000438:	ea4f 4c13 	mov.w	ip, r3, lsr #16
 800043c:	40fd      	lsrs	r5, r7
 800043e:	ea4e 0e04 	orr.w	lr, lr, r4
 8000442:	fbb5 f9fc 	udiv	r9, r5, ip
 8000446:	ea4f 441e 	mov.w	r4, lr, lsr #16
 800044a:	fb0c 5519 	mls	r5, ip, r9, r5
 800044e:	fa1f f883 	uxth.w	r8, r3
 8000452:	ea44 4505 	orr.w	r5, r4, r5, lsl #16
 8000456:	fb09 f408 	mul.w	r4, r9, r8
 800045a:	42ac      	cmp	r4, r5
 800045c:	fa02 f201 	lsl.w	r2, r2, r1
 8000460:	fa00 fa01 	lsl.w	sl, r0, r1
 8000464:	d908      	bls.n	8000478 <__udivmoddi4+0x244>
 8000466:	18ed      	adds	r5, r5, r3
 8000468:	f109 30ff 	add.w	r0, r9, #4294967295
 800046c:	d243      	bcs.n	80004f6 <__udivmoddi4+0x2c2>
 800046e:	42ac      	cmp	r4, r5
 8000470:	d941      	bls.n	80004f6 <__udivmoddi4+0x2c2>
 8000472:	f1a9 0902 	sub.w	r9, r9, #2
 8000476:	441d      	add	r5, r3
 8000478:	1b2d      	subs	r5, r5, r4
 800047a:	fa1f fe8e 	uxth.w	lr, lr
 800047e:	fbb5 f0fc 	udiv	r0, r5, ip
 8000482:	fb0c 5510 	mls	r5, ip, r0, r5
 8000486:	ea4e 4405 	orr.w	r4, lr, r5, lsl #16
 800048a:	fb00 f808 	mul.w	r8, r0, r8
 800048e:	45a0      	cmp	r8, r4
 8000490:	d907      	bls.n	80004a2 <__udivmoddi4+0x26e>
 8000492:	18e4      	adds	r4, r4, r3
 8000494:	f100 35ff 	add.w	r5, r0, #4294967295
 8000498:	d229      	bcs.n	80004ee <__udivmoddi4+0x2ba>
 800049a:	45a0      	cmp	r8, r4
 800049c:	d927      	bls.n	80004ee <__udivmoddi4+0x2ba>
 800049e:	3802      	subs	r0, #2
 80004a0:	441c      	add	r4, r3
 80004a2:	ea40 4009 	orr.w	r0, r0, r9, lsl #16
 80004a6:	eba4 0408 	sub.w	r4, r4, r8
 80004aa:	fba0 8902 	umull	r8, r9, r0, r2
 80004ae:	454c      	cmp	r4, r9
 80004b0:	46c6      	mov	lr, r8
 80004b2:	464d      	mov	r5, r9
 80004b4:	d315      	bcc.n	80004e2 <__udivmoddi4+0x2ae>
 80004b6:	d012      	beq.n	80004de <__udivmoddi4+0x2aa>
 80004b8:	b156      	cbz	r6, 80004d0 <__udivmoddi4+0x29c>
 80004ba:	ebba 030e 	subs.w	r3, sl, lr
 80004be:	eb64 0405 	sbc.w	r4, r4, r5
 80004c2:	fa04 f707 	lsl.w	r7, r4, r7
 80004c6:	40cb      	lsrs	r3, r1
 80004c8:	431f      	orrs	r7, r3
 80004ca:	40cc      	lsrs	r4, r1
 80004cc:	6037      	str	r7, [r6, #0]
 80004ce:	6074      	str	r4, [r6, #4]
 80004d0:	2100      	movs	r1, #0
 80004d2:	e8bd 87f0 	ldmia.w	sp!, {r4, r5, r6, r7, r8, r9, sl, pc}
 80004d6:	4618      	mov	r0, r3
 80004d8:	e6f8      	b.n	80002cc <__udivmoddi4+0x98>
 80004da:	4690      	mov	r8, r2
 80004dc:	e6e0      	b.n	80002a0 <__udivmoddi4+0x6c>
 80004de:	45c2      	cmp	sl, r8
 80004e0:	d2ea      	bcs.n	80004b8 <__udivmoddi4+0x284>
 80004e2:	ebb8 0e02 	subs.w	lr, r8, r2
 80004e6:	eb69 0503 	sbc.w	r5, r9, r3
 80004ea:	3801      	subs	r0, #1
 80004ec:	e7e4      	b.n	80004b8 <__udivmoddi4+0x284>
 80004ee:	4628      	mov	r0, r5
 80004f0:	e7d7      	b.n	80004a2 <__udivmoddi4+0x26e>
 80004f2:	4640      	mov	r0, r8
 80004f4:	e791      	b.n	800041a <__udivmoddi4+0x1e6>
 80004f6:	4681      	mov	r9, r0
 80004f8:	e7be      	b.n	8000478 <__udivmoddi4+0x244>
 80004fa:	4601      	mov	r1, r0
 80004fc:	e778      	b.n	80003f0 <__udivmoddi4+0x1bc>
 80004fe:	3802      	subs	r0, #2
 8000500:	443c      	add	r4, r7
 8000502:	e745      	b.n	8000390 <__udivmoddi4+0x15c>
 8000504:	4608      	mov	r0, r1
 8000506:	e708      	b.n	800031a <__udivmoddi4+0xe6>
 8000508:	f1a8 0802 	sub.w	r8, r8, #2
 800050c:	443d      	add	r5, r7
 800050e:	e72b      	b.n	8000368 <__udivmoddi4+0x134>

08000510 <__aeabi_idiv0>:
 8000510:	4770      	bx	lr
 8000512:	bf00      	nop

08000514 <HAL_InitTick>:
  *       implementation  in user file.
  * @param TickPriority Tick interrupt priority.
  * @retval HAL status
  */
__weak HAL_StatusTypeDef HAL_InitTick(uint32_t TickPriority)
{
 8000514:	b538      	push	{r3, r4, r5, lr}
  /* Configure the SysTick to have interrupt in 1ms time basis*/
  if (HAL_SYSTICK_Config(SystemCoreClock / (1000U / uwTickFreq)) > 0U)
 8000516:	4a0e      	ldr	r2, [pc, #56]	; (8000550 <HAL_InitTick+0x3c>)
 8000518:	4b0e      	ldr	r3, [pc, #56]	; (8000554 <HAL_InitTick+0x40>)
{
 800051a:	4605      	mov	r5, r0
  if (HAL_SYSTICK_Config(SystemCoreClock / (1000U / uwTickFreq)) > 0U)
 800051c:	7818      	ldrb	r0, [r3, #0]
 800051e:	f44f 737a 	mov.w	r3, #1000	; 0x3e8
 8000522:	fbb3 f3f0 	udiv	r3, r3, r0
 8000526:	6810      	ldr	r0, [r2, #0]
 8000528:	fbb0 f0f3 	udiv	r0, r0, r3
 800052c:	f000 f8a8 	bl	8000680 <HAL_SYSTICK_Config>
 8000530:	4604      	mov	r4, r0
 8000532:	b958      	cbnz	r0, 800054c <HAL_InitTick+0x38>
  {
    return HAL_ERROR;
  }

  /* Configure the SysTick IRQ priority */
  if (TickPriority < (1UL << __NVIC_PRIO_BITS))
 8000534:	2d0f      	cmp	r5, #15
 8000536:	d809      	bhi.n	800054c <HAL_InitTick+0x38>
  {
    HAL_NVIC_SetPriority(SysTick_IRQn, TickPriority, 0U);
 8000538:	4602      	mov	r2, r0
 800053a:	4629      	mov	r1, r5
 800053c:	f04f 30ff 	mov.w	r0, #4294967295
 8000540:	f000 f85e 	bl	8000600 <HAL_NVIC_SetPriority>
    uwTickPrio = TickPriority;
 8000544:	4b04      	ldr	r3, [pc, #16]	; (8000558 <HAL_InitTick+0x44>)
 8000546:	4620      	mov	r0, r4
 8000548:	601d      	str	r5, [r3, #0]
 800054a:	bd38      	pop	{r3, r4, r5, pc}
    return HAL_ERROR;
 800054c:	2001      	movs	r0, #1
    return HAL_ERROR;
  }

  /* Return function status */
  return HAL_OK;
}
 800054e:	bd38      	pop	{r3, r4, r5, pc}
 8000550:	20000138 	.word	0x20000138
 8000554:	20000000 	.word	0x20000000
 8000558:	20000004 	.word	0x20000004

0800055c <HAL_Init>:
{
 800055c:	b508      	push	{r3, lr}
  __HAL_FLASH_INSTRUCTION_CACHE_ENABLE();
 800055e:	4b0b      	ldr	r3, [pc, #44]	; (800058c <HAL_Init+0x30>)
 8000560:	681a      	ldr	r2, [r3, #0]
 8000562:	f442 7200 	orr.w	r2, r2, #512	; 0x200
 8000566:	601a      	str	r2, [r3, #0]
  __HAL_FLASH_DATA_CACHE_ENABLE();
 8000568:	681a      	ldr	r2, [r3, #0]
 800056a:	f442 6280 	orr.w	r2, r2, #1024	; 0x400
 800056e:	601a      	str	r2, [r3, #0]
  __HAL_FLASH_PREFETCH_BUFFER_ENABLE();
 8000570:	681a      	ldr	r2, [r3, #0]
 8000572:	f442 7280 	orr.w	r2, r2, #256	; 0x100
 8000576:	601a      	str	r2, [r3, #0]
  HAL_NVIC_SetPriorityGrouping(NVIC_PRIORITYGROUP_4);
 8000578:	2003      	movs	r0, #3
 800057a:	f000 f82f 	bl	80005dc <HAL_NVIC_SetPriorityGrouping>
  HAL_InitTick(TICK_INT_PRIORITY);
 800057e:	2000      	movs	r0, #0
 8000580:	f7ff ffc8 	bl	8000514 <HAL_InitTick>
  HAL_MspInit();
 8000584:	f002 fb49 	bl	8002c1a <HAL_MspInit>
}
 8000588:	2000      	movs	r0, #0
 800058a:	bd08      	pop	{r3, pc}
 800058c:	40023c00 	.word	0x40023c00

08000590 <HAL_IncTick>:
  *      implementations in user file.
  * @retval None
  */
__weak void HAL_IncTick(void)
{
  uwTick += uwTickFreq;
 8000590:	4a03      	ldr	r2, [pc, #12]	; (80005a0 <HAL_IncTick+0x10>)
 8000592:	4b04      	ldr	r3, [pc, #16]	; (80005a4 <HAL_IncTick+0x14>)
 8000594:	6811      	ldr	r1, [r2, #0]
 8000596:	781b      	ldrb	r3, [r3, #0]
 8000598:	440b      	add	r3, r1
 800059a:	6013      	str	r3, [r2, #0]
 800059c:	4770      	bx	lr
 800059e:	bf00      	nop
 80005a0:	20000210 	.word	0x20000210
 80005a4:	20000000 	.word	0x20000000

080005a8 <HAL_GetTick>:
  *       implementations in user file.
  * @retval tick value
  */
__weak uint32_t HAL_GetTick(void)
{
  return uwTick;
 80005a8:	4b01      	ldr	r3, [pc, #4]	; (80005b0 <HAL_GetTick+0x8>)
 80005aa:	6818      	ldr	r0, [r3, #0]
}
 80005ac:	4770      	bx	lr
 80005ae:	bf00      	nop
 80005b0:	20000210 	.word	0x20000210

080005b4 <HAL_Delay>:
  *       implementations in user file.
  * @param Delay specifies the delay time length, in milliseconds.
  * @retval None
  */
__weak void HAL_Delay(uint32_t Delay)
{
 80005b4:	b538      	push	{r3, r4, r5, lr}
 80005b6:	4604      	mov	r4, r0
  uint32_t tickstart = HAL_GetTick();
 80005b8:	f7ff fff6 	bl	80005a8 <HAL_GetTick>
  uint32_t wait = Delay;

  /* Add a freq to guarantee minimum wait */
  if (wait < HAL_MAX_DELAY)
 80005bc:	1c63      	adds	r3, r4, #1
  {
    wait += (uint32_t)(uwTickFreq);
 80005be:	bf1c      	itt	ne
 80005c0:	4b05      	ldrne	r3, [pc, #20]	; (80005d8 <HAL_Delay+0x24>)
 80005c2:	781b      	ldrbne	r3, [r3, #0]
  uint32_t tickstart = HAL_GetTick();
 80005c4:	4605      	mov	r5, r0
    wait += (uint32_t)(uwTickFreq);
 80005c6:	bf18      	it	ne
 80005c8:	18e4      	addne	r4, r4, r3
  }

  while((HAL_GetTick() - tickstart) < wait)
 80005ca:	f7ff ffed 	bl	80005a8 <HAL_GetTick>
 80005ce:	1b40      	subs	r0, r0, r5
 80005d0:	4284      	cmp	r4, r0
 80005d2:	d8fa      	bhi.n	80005ca <HAL_Delay+0x16>
  {
  }
}
 80005d4:	bd38      	pop	{r3, r4, r5, pc}
 80005d6:	bf00      	nop
 80005d8:	20000000 	.word	0x20000000

080005dc <HAL_NVIC_SetPriorityGrouping>:
__STATIC_INLINE void NVIC_SetPriorityGrouping(uint32_t PriorityGroup)
{
  uint32_t reg_value;
  uint32_t PriorityGroupTmp = (PriorityGroup & (uint32_t)0x07UL);             /* only values 0..7 are used          */

  reg_value  =  SCB->AIRCR;                                                   /* read old register configuration    */
 80005dc:	4a07      	ldr	r2, [pc, #28]	; (80005fc <HAL_NVIC_SetPriorityGrouping+0x20>)
 80005de:	68d3      	ldr	r3, [r2, #12]
  reg_value &= ~((uint32_t)(SCB_AIRCR_VECTKEY_Msk | SCB_AIRCR_PRIGROUP_Msk)); /* clear bits to change               */
 80005e0:	f423 63e0 	bic.w	r3, r3, #1792	; 0x700
 80005e4:	041b      	lsls	r3, r3, #16
 80005e6:	0c1b      	lsrs	r3, r3, #16
 80005e8:	f043 63bf 	orr.w	r3, r3, #100139008	; 0x5f80000
  reg_value  =  (reg_value                                   |
                ((uint32_t)0x5FAUL << SCB_AIRCR_VECTKEY_Pos) |
                (PriorityGroupTmp << 8U)                      );              /* Insert write key and priorty group */
 80005ec:	0200      	lsls	r0, r0, #8
 80005ee:	f443 3300 	orr.w	r3, r3, #131072	; 0x20000
 80005f2:	f400 60e0 	and.w	r0, r0, #1792	; 0x700
  reg_value  =  (reg_value                                   |
 80005f6:	4303      	orrs	r3, r0
  SCB->AIRCR =  reg_value;
 80005f8:	60d3      	str	r3, [r2, #12]
 80005fa:	4770      	bx	lr
 80005fc:	e000ed00 	.word	0xe000ed00

08000600 <HAL_NVIC_SetPriority>:
  \details Reads the priority grouping field from the NVIC Interrupt Controller.
  \return                Priority grouping field (SCB->AIRCR [10:8] PRIGROUP field).
 */
__STATIC_INLINE uint32_t NVIC_GetPriorityGrouping(void)
{
  return ((uint32_t)((SCB->AIRCR & SCB_AIRCR_PRIGROUP_Msk) >> SCB_AIRCR_PRIGROUP_Pos));
 8000600:	4b17      	ldr	r3, [pc, #92]	; (8000660 <HAL_NVIC_SetPriority+0x60>)
  *         This parameter can be a value between 0 and 15
  *         A lower priority value indicates a higher priority.          
  * @retval None
  */
void HAL_NVIC_SetPriority(IRQn_Type IRQn, uint32_t PreemptPriority, uint32_t SubPriority)
{ 
 8000602:	b530      	push	{r4, r5, lr}
 8000604:	68dc      	ldr	r4, [r3, #12]
 8000606:	f3c4 2402 	ubfx	r4, r4, #8, #3
{
  uint32_t PriorityGroupTmp = (PriorityGroup & (uint32_t)0x07UL);   /* only values 0..7 are used          */
  uint32_t PreemptPriorityBits;
  uint32_t SubPriorityBits;

  PreemptPriorityBits = ((7UL - PriorityGroupTmp) > (uint32_t)(__NVIC_PRIO_BITS)) ? (uint32_t)(__NVIC_PRIO_BITS) : (uint32_t)(7UL - PriorityGroupTmp);
 800060a:	f1c4 0307 	rsb	r3, r4, #7
  SubPriorityBits     = ((PriorityGroupTmp + (uint32_t)(__NVIC_PRIO_BITS)) < (uint32_t)7UL) ? (uint32_t)0UL : (uint32_t)((PriorityGroupTmp - 7UL) + (uint32_t)(__NVIC_PRIO_BITS));
 800060e:	1d25      	adds	r5, r4, #4
  PreemptPriorityBits = ((7UL - PriorityGroupTmp) > (uint32_t)(__NVIC_PRIO_BITS)) ? (uint32_t)(__NVIC_PRIO_BITS) : (uint32_t)(7UL - PriorityGroupTmp);
 8000610:	2b04      	cmp	r3, #4
 8000612:	bf28      	it	cs
 8000614:	2304      	movcs	r3, #4
  SubPriorityBits     = ((PriorityGroupTmp + (uint32_t)(__NVIC_PRIO_BITS)) < (uint32_t)7UL) ? (uint32_t)0UL : (uint32_t)((PriorityGroupTmp - 7UL) + (uint32_t)(__NVIC_PRIO_BITS));
 8000616:	2d06      	cmp	r5, #6

  return (
           ((PreemptPriority & (uint32_t)((1UL << (PreemptPriorityBits)) - 1UL)) << SubPriorityBits) |
 8000618:	f04f 0501 	mov.w	r5, #1
 800061c:	fa05 f303 	lsl.w	r3, r5, r3
 8000620:	f103 33ff 	add.w	r3, r3, #4294967295
  SubPriorityBits     = ((PriorityGroupTmp + (uint32_t)(__NVIC_PRIO_BITS)) < (uint32_t)7UL) ? (uint32_t)0UL : (uint32_t)((PriorityGroupTmp - 7UL) + (uint32_t)(__NVIC_PRIO_BITS));
 8000624:	bf8c      	ite	hi
 8000626:	3c03      	subhi	r4, #3
 8000628:	2400      	movls	r4, #0
           ((PreemptPriority & (uint32_t)((1UL << (PreemptPriorityBits)) - 1UL)) << SubPriorityBits) |
 800062a:	4019      	ands	r1, r3
 800062c:	40a1      	lsls	r1, r4
           ((SubPriority     & (uint32_t)((1UL << (SubPriorityBits    )) - 1UL)))
 800062e:	fa05 f404 	lsl.w	r4, r5, r4
 8000632:	3c01      	subs	r4, #1
 8000634:	4022      	ands	r2, r4
  if ((int32_t)(IRQn) < 0)
 8000636:	2800      	cmp	r0, #0
           ((PreemptPriority & (uint32_t)((1UL << (PreemptPriorityBits)) - 1UL)) << SubPriorityBits) |
 8000638:	ea42 0201 	orr.w	r2, r2, r1
 800063c:	ea4f 1202 	mov.w	r2, r2, lsl #4
    NVIC->IP[((uint32_t)(int32_t)IRQn)]               = (uint8_t)((priority << (8U - __NVIC_PRIO_BITS)) & (uint32_t)0xFFUL);
 8000640:	bfaf      	iteee	ge
 8000642:	f100 4060 	addge.w	r0, r0, #3758096384	; 0xe0000000
    SCB->SHP[(((uint32_t)(int32_t)IRQn) & 0xFUL)-4UL] = (uint8_t)((priority << (8U - __NVIC_PRIO_BITS)) & (uint32_t)0xFFUL);
 8000646:	f000 000f 	andlt.w	r0, r0, #15
 800064a:	4b06      	ldrlt	r3, [pc, #24]	; (8000664 <HAL_NVIC_SetPriority+0x64>)
 800064c:	b2d2      	uxtblt	r2, r2
    NVIC->IP[((uint32_t)(int32_t)IRQn)]               = (uint8_t)((priority << (8U - __NVIC_PRIO_BITS)) & (uint32_t)0xFFUL);
 800064e:	bfa5      	ittet	ge
 8000650:	f500 4061 	addge.w	r0, r0, #57600	; 0xe100
 8000654:	b2d2      	uxtbge	r2, r2
    SCB->SHP[(((uint32_t)(int32_t)IRQn) & 0xFUL)-4UL] = (uint8_t)((priority << (8U - __NVIC_PRIO_BITS)) & (uint32_t)0xFFUL);
 8000656:	541a      	strblt	r2, [r3, r0]
    NVIC->IP[((uint32_t)(int32_t)IRQn)]               = (uint8_t)((priority << (8U - __NVIC_PRIO_BITS)) & (uint32_t)0xFFUL);
 8000658:	f880 2300 	strbge.w	r2, [r0, #768]	; 0x300
 800065c:	bd30      	pop	{r4, r5, pc}
 800065e:	bf00      	nop
 8000660:	e000ed00 	.word	0xe000ed00
 8000664:	e000ed14 	.word	0xe000ed14

08000668 <HAL_NVIC_EnableIRQ>:
  NVIC->ISER[(((uint32_t)(int32_t)IRQn) >> 5UL)] = (uint32_t)(1UL << (((uint32_t)(int32_t)IRQn) & 0x1FUL));
 8000668:	0942      	lsrs	r2, r0, #5
 800066a:	2301      	movs	r3, #1
 800066c:	f000 001f 	and.w	r0, r0, #31
 8000670:	fa03 f000 	lsl.w	r0, r3, r0
 8000674:	4b01      	ldr	r3, [pc, #4]	; (800067c <HAL_NVIC_EnableIRQ+0x14>)
 8000676:	f843 0022 	str.w	r0, [r3, r2, lsl #2]
 800067a:	4770      	bx	lr
 800067c:	e000e100 	.word	0xe000e100

08000680 <HAL_SYSTICK_Config>:
           function <b>SysTick_Config</b> is not included. In this case, the file <b><i>device</i>.h</b>
           must contain a vendor-specific implementation of this function.
 */
__STATIC_INLINE uint32_t SysTick_Config(uint32_t ticks)
{
  if ((ticks - 1UL) > SysTick_LOAD_RELOAD_Msk)
 8000680:	3801      	subs	r0, #1
 8000682:	f1b0 7f80 	cmp.w	r0, #16777216	; 0x1000000
 8000686:	d20a      	bcs.n	800069e <HAL_SYSTICK_Config+0x1e>
  {
    return (1UL);                                                   /* Reload value impossible */
  }

  SysTick->LOAD  = (uint32_t)(ticks - 1UL);                         /* set reload register */
 8000688:	4b06      	ldr	r3, [pc, #24]	; (80006a4 <HAL_SYSTICK_Config+0x24>)
    SCB->SHP[(((uint32_t)(int32_t)IRQn) & 0xFUL)-4UL] = (uint8_t)((priority << (8U - __NVIC_PRIO_BITS)) & (uint32_t)0xFFUL);
 800068a:	4a07      	ldr	r2, [pc, #28]	; (80006a8 <HAL_SYSTICK_Config+0x28>)
  SysTick->LOAD  = (uint32_t)(ticks - 1UL);                         /* set reload register */
 800068c:	6058      	str	r0, [r3, #4]
    SCB->SHP[(((uint32_t)(int32_t)IRQn) & 0xFUL)-4UL] = (uint8_t)((priority << (8U - __NVIC_PRIO_BITS)) & (uint32_t)0xFFUL);
 800068e:	21f0      	movs	r1, #240	; 0xf0
 8000690:	f882 1023 	strb.w	r1, [r2, #35]	; 0x23
  NVIC_SetPriority (SysTick_IRQn, (1UL << __NVIC_PRIO_BITS) - 1UL); /* set Priority for Systick Interrupt */
  SysTick->VAL   = 0UL;                                             /* Load the SysTick Counter Value */
 8000694:	2000      	movs	r0, #0
  SysTick->CTRL  = SysTick_CTRL_CLKSOURCE_Msk |
 8000696:	2207      	movs	r2, #7
  SysTick->VAL   = 0UL;                                             /* Load the SysTick Counter Value */
 8000698:	6098      	str	r0, [r3, #8]
  SysTick->CTRL  = SysTick_CTRL_CLKSOURCE_Msk |
 800069a:	601a      	str	r2, [r3, #0]
 800069c:	4770      	bx	lr
    return (1UL);                                                   /* Reload value impossible */
 800069e:	2001      	movs	r0, #1
  *                  - 1  Function failed.
  */
uint32_t HAL_SYSTICK_Config(uint32_t TicksNumb)
{
   return SysTick_Config(TicksNumb);
}
 80006a0:	4770      	bx	lr
 80006a2:	bf00      	nop
 80006a4:	e000e010 	.word	0xe000e010
 80006a8:	e000ed00 	.word	0xe000ed00

080006ac <HAL_SYSTICK_CLKSourceConfig>:
  *             @arg SYSTICK_CLKSOURCE_HCLK_DIV8: AHB clock divided by 8 selected as SysTick clock source.
  *             @arg SYSTICK_CLKSOURCE_HCLK: AHB clock selected as SysTick clock source.
  * @retval None
  */
void HAL_SYSTICK_CLKSourceConfig(uint32_t CLKSource)
{
 80006ac:	4b04      	ldr	r3, [pc, #16]	; (80006c0 <HAL_SYSTICK_CLKSourceConfig+0x14>)
  /* Check the parameters */
  assert_param(IS_SYSTICK_CLK_SOURCE(CLKSource));
  if (CLKSource == SYSTICK_CLKSOURCE_HCLK)
  {
    SysTick->CTRL |= SYSTICK_CLKSOURCE_HCLK;
 80006ae:	681a      	ldr	r2, [r3, #0]
  if (CLKSource == SYSTICK_CLKSOURCE_HCLK)
 80006b0:	2804      	cmp	r0, #4
    SysTick->CTRL |= SYSTICK_CLKSOURCE_HCLK;
 80006b2:	bf0c      	ite	eq
 80006b4:	f042 0204 	orreq.w	r2, r2, #4
  }
  else
  {
    SysTick->CTRL &= ~SYSTICK_CLKSOURCE_HCLK;
 80006b8:	f022 0204 	bicne.w	r2, r2, #4
 80006bc:	601a      	str	r2, [r3, #0]
 80006be:	4770      	bx	lr
 80006c0:	e000e010 	.word	0xe000e010

080006c4 <HAL_SYSTICK_Callback>:
/**
  * @brief  SYSTICK callback.
  * @retval None
  */
__weak void HAL_SYSTICK_Callback(void)
{
 80006c4:	4770      	bx	lr

080006c6 <HAL_SYSTICK_IRQHandler>:
{
 80006c6:	b508      	push	{r3, lr}
  HAL_SYSTICK_Callback();
 80006c8:	f7ff fffc 	bl	80006c4 <HAL_SYSTICK_Callback>
 80006cc:	bd08      	pop	{r3, pc}
	...

080006d0 <HAL_GPIO_Init>:
  * @param  GPIO_Init pointer to a GPIO_InitTypeDef structure that contains
  *         the configuration information for the specified GPIO peripheral.
  * @retval None
  */
void HAL_GPIO_Init(GPIO_TypeDef  *GPIOx, GPIO_InitTypeDef *GPIO_Init)
{
 80006d0:	e92d 4ff0 	stmdb	sp!, {r4, r5, r6, r7, r8, r9, sl, fp, lr}
 80006d4:	b085      	sub	sp, #20
  for(position = 0U; position < GPIO_NUMBER; position++)
  {
    /* Get the IO position */
    ioposition = 0x01U << position;
    /* Get the current IO position */
    iocurrent = (uint32_t)(GPIO_Init->Pin) & ioposition;
 80006d6:	680b      	ldr	r3, [r1, #0]
      /*--------------------- EXTI Mode Configuration ------------------------*/
      /* Configure the External Interrupt or event for the current IO */
      if((GPIO_Init->Mode & EXTI_MODE) == EXTI_MODE)
      {
        /* Enable SYSCFG Clock */
        __HAL_RCC_SYSCFG_CLK_ENABLE();
 80006d8:	f8df 81a0 	ldr.w	r8, [pc, #416]	; 800087c <HAL_GPIO_Init+0x1ac>
        temp &= ~(0x0FU << (4U * (position & 0x03U)));
        temp |= ((uint32_t)(GPIO_GET_INDEX(GPIOx)) << (4U * (position & 0x03U)));
        SYSCFG->EXTICR[position >> 2U] = temp;

        /* Clear EXTI line configuration */
        temp = EXTI->IMR;
 80006dc:	4a65      	ldr	r2, [pc, #404]	; (8000874 <HAL_GPIO_Init+0x1a4>)
        temp |= ((uint32_t)(GPIO_GET_INDEX(GPIOx)) << (4U * (position & 0x03U)));
 80006de:	f8df 91a0 	ldr.w	r9, [pc, #416]	; 8000880 <HAL_GPIO_Init+0x1b0>
    iocurrent = (uint32_t)(GPIO_Init->Pin) & ioposition;
 80006e2:	9301      	str	r3, [sp, #4]
  for(position = 0U; position < GPIO_NUMBER; position++)
 80006e4:	2300      	movs	r3, #0
    ioposition = 0x01U << position;
 80006e6:	f04f 0e01 	mov.w	lr, #1
    iocurrent = (uint32_t)(GPIO_Init->Pin) & ioposition;
 80006ea:	9c01      	ldr	r4, [sp, #4]
    ioposition = 0x01U << position;
 80006ec:	fa0e fe03 	lsl.w	lr, lr, r3
    iocurrent = (uint32_t)(GPIO_Init->Pin) & ioposition;
 80006f0:	ea0e 0604 	and.w	r6, lr, r4
    if(iocurrent == ioposition)
 80006f4:	45b6      	cmp	lr, r6
 80006f6:	f040 80aa 	bne.w	800084e <HAL_GPIO_Init+0x17e>
      if((GPIO_Init->Mode == GPIO_MODE_AF_PP) || (GPIO_Init->Mode == GPIO_MODE_AF_OD))
 80006fa:	684c      	ldr	r4, [r1, #4]
 80006fc:	f024 0710 	bic.w	r7, r4, #16
 8000700:	2f02      	cmp	r7, #2
 8000702:	d116      	bne.n	8000732 <HAL_GPIO_Init+0x62>
        temp = GPIOx->AFR[position >> 3U];
 8000704:	ea4f 0ad3 	mov.w	sl, r3, lsr #3
 8000708:	eb00 0a8a 	add.w	sl, r0, sl, lsl #2
        temp &= ~(0xFU << ((uint32_t)(position & 0x07U) * 4U)) ;
 800070c:	f003 0b07 	and.w	fp, r3, #7
        temp = GPIOx->AFR[position >> 3U];
 8000710:	f8da 5020 	ldr.w	r5, [sl, #32]
        temp &= ~(0xFU << ((uint32_t)(position & 0x07U) * 4U)) ;
 8000714:	ea4f 0b8b 	mov.w	fp, fp, lsl #2
 8000718:	f04f 0c0f 	mov.w	ip, #15
 800071c:	fa0c fc0b 	lsl.w	ip, ip, fp
 8000720:	ea25 0c0c 	bic.w	ip, r5, ip
        temp |= ((uint32_t)(GPIO_Init->Alternate) << (((uint32_t)position & 0x07U) * 4U));
 8000724:	690d      	ldr	r5, [r1, #16]
 8000726:	fa05 f50b 	lsl.w	r5, r5, fp
 800072a:	ea45 050c 	orr.w	r5, r5, ip
        GPIOx->AFR[position >> 3U] = temp;
 800072e:	f8ca 5020 	str.w	r5, [sl, #32]
 8000732:	ea4f 0a43 	mov.w	sl, r3, lsl #1
      temp &= ~(GPIO_MODER_MODER0 << (position * 2U));
 8000736:	2503      	movs	r5, #3
      temp = GPIOx->MODER;
 8000738:	f8d0 b000 	ldr.w	fp, [r0]
      temp &= ~(GPIO_MODER_MODER0 << (position * 2U));
 800073c:	fa05 f50a 	lsl.w	r5, r5, sl
 8000740:	43ed      	mvns	r5, r5
      temp |= ((GPIO_Init->Mode & GPIO_MODE) << (position * 2U));
 8000742:	f004 0c03 	and.w	ip, r4, #3
      temp &= ~(GPIO_MODER_MODER0 << (position * 2U));
 8000746:	ea0b 0b05 	and.w	fp, fp, r5
      temp |= ((GPIO_Init->Mode & GPIO_MODE) << (position * 2U));
 800074a:	fa0c fc0a 	lsl.w	ip, ip, sl
      if((GPIO_Init->Mode == GPIO_MODE_OUTPUT_PP) || (GPIO_Init->Mode == GPIO_MODE_AF_PP) ||
 800074e:	3f01      	subs	r7, #1
      temp |= ((GPIO_Init->Mode & GPIO_MODE) << (position * 2U));
 8000750:	ea4c 0c0b 	orr.w	ip, ip, fp
      if((GPIO_Init->Mode == GPIO_MODE_OUTPUT_PP) || (GPIO_Init->Mode == GPIO_MODE_AF_PP) ||
 8000754:	2f01      	cmp	r7, #1
      GPIOx->MODER = temp;
 8000756:	f8c0 c000 	str.w	ip, [r0]
      if((GPIO_Init->Mode == GPIO_MODE_OUTPUT_PP) || (GPIO_Init->Mode == GPIO_MODE_AF_PP) ||
 800075a:	d811      	bhi.n	8000780 <HAL_GPIO_Init+0xb0>
        temp = GPIOx->OSPEEDR; 
 800075c:	6887      	ldr	r7, [r0, #8]
        temp &= ~(GPIO_OSPEEDER_OSPEEDR0 << (position * 2U));
 800075e:	ea07 0b05 	and.w	fp, r7, r5
        temp |= (GPIO_Init->Speed << (position * 2U));
 8000762:	68cf      	ldr	r7, [r1, #12]
 8000764:	fa07 fc0a 	lsl.w	ip, r7, sl
 8000768:	ea4c 070b 	orr.w	r7, ip, fp
        GPIOx->OSPEEDR = temp;
 800076c:	6087      	str	r7, [r0, #8]
        temp = GPIOx->OTYPER;
 800076e:	6847      	ldr	r7, [r0, #4]
        temp &= ~(GPIO_OTYPER_OT_0 << position) ;
 8000770:	ea27 0e0e 	bic.w	lr, r7, lr
        temp |= (((GPIO_Init->Mode & GPIO_OUTPUT_TYPE) >> 4U) << position);
 8000774:	f3c4 1700 	ubfx	r7, r4, #4, #1
 8000778:	409f      	lsls	r7, r3
 800077a:	ea47 070e 	orr.w	r7, r7, lr
        GPIOx->OTYPER = temp;
 800077e:	6047      	str	r7, [r0, #4]
      temp = GPIOx->PUPDR;
 8000780:	68c7      	ldr	r7, [r0, #12]
      temp &= ~(GPIO_PUPDR_PUPDR0 << (position * 2U));
 8000782:	403d      	ands	r5, r7
      temp |= ((GPIO_Init->Pull) << (position * 2U));
 8000784:	688f      	ldr	r7, [r1, #8]
 8000786:	fa07 f70a 	lsl.w	r7, r7, sl
 800078a:	433d      	orrs	r5, r7
      GPIOx->PUPDR = temp;
 800078c:	60c5      	str	r5, [r0, #12]
      if((GPIO_Init->Mode & EXTI_MODE) == EXTI_MODE)
 800078e:	00e5      	lsls	r5, r4, #3
 8000790:	d55d      	bpl.n	800084e <HAL_GPIO_Init+0x17e>
        __HAL_RCC_SYSCFG_CLK_ENABLE();
 8000792:	f04f 0b00 	mov.w	fp, #0
 8000796:	f8cd b00c 	str.w	fp, [sp, #12]
 800079a:	f8d8 7044 	ldr.w	r7, [r8, #68]	; 0x44
        temp |= ((uint32_t)(GPIO_GET_INDEX(GPIOx)) << (4U * (position & 0x03U)));
 800079e:	4d36      	ldr	r5, [pc, #216]	; (8000878 <HAL_GPIO_Init+0x1a8>)
        __HAL_RCC_SYSCFG_CLK_ENABLE();
 80007a0:	f447 4780 	orr.w	r7, r7, #16384	; 0x4000
 80007a4:	f8c8 7044 	str.w	r7, [r8, #68]	; 0x44
 80007a8:	f8d8 7044 	ldr.w	r7, [r8, #68]	; 0x44
 80007ac:	f407 4780 	and.w	r7, r7, #16384	; 0x4000
 80007b0:	9703      	str	r7, [sp, #12]
 80007b2:	9f03      	ldr	r7, [sp, #12]
 80007b4:	f023 0703 	bic.w	r7, r3, #3
 80007b8:	f107 4780 	add.w	r7, r7, #1073741824	; 0x40000000
 80007bc:	f507 379c 	add.w	r7, r7, #79872	; 0x13800
        temp &= ~(0x0FU << (4U * (position & 0x03U)));
 80007c0:	f003 0c03 	and.w	ip, r3, #3
        temp = SYSCFG->EXTICR[position >> 2U];
 80007c4:	f8d7 a008 	ldr.w	sl, [r7, #8]
        temp &= ~(0x0FU << (4U * (position & 0x03U)));
 80007c8:	ea4f 0c8c 	mov.w	ip, ip, lsl #2
 80007cc:	f04f 0e0f 	mov.w	lr, #15
 80007d0:	fa0e fe0c 	lsl.w	lr, lr, ip
        temp |= ((uint32_t)(GPIO_GET_INDEX(GPIOx)) << (4U * (position & 0x03U)));
 80007d4:	42a8      	cmp	r0, r5
        temp &= ~(0x0FU << (4U * (position & 0x03U)));
 80007d6:	ea2a 0e0e 	bic.w	lr, sl, lr
        temp |= ((uint32_t)(GPIO_GET_INDEX(GPIOx)) << (4U * (position & 0x03U)));
 80007da:	d03f      	beq.n	800085c <HAL_GPIO_Init+0x18c>
 80007dc:	f505 6580 	add.w	r5, r5, #1024	; 0x400
 80007e0:	42a8      	cmp	r0, r5
 80007e2:	d03d      	beq.n	8000860 <HAL_GPIO_Init+0x190>
 80007e4:	f505 6580 	add.w	r5, r5, #1024	; 0x400
 80007e8:	42a8      	cmp	r0, r5
 80007ea:	d03b      	beq.n	8000864 <HAL_GPIO_Init+0x194>
 80007ec:	f505 6580 	add.w	r5, r5, #1024	; 0x400
 80007f0:	42a8      	cmp	r0, r5
 80007f2:	d039      	beq.n	8000868 <HAL_GPIO_Init+0x198>
 80007f4:	f505 6580 	add.w	r5, r5, #1024	; 0x400
 80007f8:	42a8      	cmp	r0, r5
 80007fa:	d037      	beq.n	800086c <HAL_GPIO_Init+0x19c>
 80007fc:	4548      	cmp	r0, r9
 80007fe:	d037      	beq.n	8000870 <HAL_GPIO_Init+0x1a0>
 8000800:	f505 6500 	add.w	r5, r5, #2048	; 0x800
 8000804:	42a8      	cmp	r0, r5
 8000806:	bf14      	ite	ne
 8000808:	2507      	movne	r5, #7
 800080a:	2506      	moveq	r5, #6
 800080c:	fa05 f50c 	lsl.w	r5, r5, ip
 8000810:	ea45 050e 	orr.w	r5, r5, lr
        SYSCFG->EXTICR[position >> 2U] = temp;
 8000814:	60bd      	str	r5, [r7, #8]
        temp = EXTI->IMR;
 8000816:	6815      	ldr	r5, [r2, #0]
        temp &= ~((uint32_t)iocurrent);
 8000818:	43f7      	mvns	r7, r6
        if((GPIO_Init->Mode & GPIO_MODE_IT) == GPIO_MODE_IT)
 800081a:	f414 3f80 	tst.w	r4, #65536	; 0x10000
        temp &= ~((uint32_t)iocurrent);
 800081e:	bf0c      	ite	eq
 8000820:	403d      	andeq	r5, r7
        {
          temp |= iocurrent;
 8000822:	4335      	orrne	r5, r6
        }
        EXTI->IMR = temp;
 8000824:	6015      	str	r5, [r2, #0]

        temp = EXTI->EMR;
 8000826:	6855      	ldr	r5, [r2, #4]
        temp &= ~((uint32_t)iocurrent);
        if((GPIO_Init->Mode & GPIO_MODE_EVT) == GPIO_MODE_EVT)
 8000828:	f414 3f00 	tst.w	r4, #131072	; 0x20000
        temp &= ~((uint32_t)iocurrent);
 800082c:	bf0c      	ite	eq
 800082e:	403d      	andeq	r5, r7
        {
          temp |= iocurrent;
 8000830:	4335      	orrne	r5, r6
        }
        EXTI->EMR = temp;
 8000832:	6055      	str	r5, [r2, #4]

        /* Clear Rising Falling edge configuration */
        temp = EXTI->RTSR;
 8000834:	6895      	ldr	r5, [r2, #8]
        temp &= ~((uint32_t)iocurrent);
        if((GPIO_Init->Mode & RISING_EDGE) == RISING_EDGE)
 8000836:	f414 1f80 	tst.w	r4, #1048576	; 0x100000
        temp &= ~((uint32_t)iocurrent);
 800083a:	bf0c      	ite	eq
 800083c:	403d      	andeq	r5, r7
        {
          temp |= iocurrent;
 800083e:	4335      	orrne	r5, r6
        }
        EXTI->RTSR = temp;
 8000840:	6095      	str	r5, [r2, #8]

        temp = EXTI->FTSR;
 8000842:	68d5      	ldr	r5, [r2, #12]
        temp &= ~((uint32_t)iocurrent);
        if((GPIO_Init->Mode & FALLING_EDGE) == FALLING_EDGE)
 8000844:	02a4      	lsls	r4, r4, #10
        temp &= ~((uint32_t)iocurrent);
 8000846:	bf54      	ite	pl
 8000848:	403d      	andpl	r5, r7
        {
          temp |= iocurrent;
 800084a:	4335      	orrmi	r5, r6
        }
        EXTI->FTSR = temp;
 800084c:	60d5      	str	r5, [r2, #12]
  for(position = 0U; position < GPIO_NUMBER; position++)
 800084e:	3301      	adds	r3, #1
 8000850:	2b10      	cmp	r3, #16
 8000852:	f47f af48 	bne.w	80006e6 <HAL_GPIO_Init+0x16>
      }
    }
  }
}
 8000856:	b005      	add	sp, #20
 8000858:	e8bd 8ff0 	ldmia.w	sp!, {r4, r5, r6, r7, r8, r9, sl, fp, pc}
        temp |= ((uint32_t)(GPIO_GET_INDEX(GPIOx)) << (4U * (position & 0x03U)));
 800085c:	465d      	mov	r5, fp
 800085e:	e7d5      	b.n	800080c <HAL_GPIO_Init+0x13c>
 8000860:	2501      	movs	r5, #1
 8000862:	e7d3      	b.n	800080c <HAL_GPIO_Init+0x13c>
 8000864:	2502      	movs	r5, #2
 8000866:	e7d1      	b.n	800080c <HAL_GPIO_Init+0x13c>
 8000868:	2503      	movs	r5, #3
 800086a:	e7cf      	b.n	800080c <HAL_GPIO_Init+0x13c>
 800086c:	2504      	movs	r5, #4
 800086e:	e7cd      	b.n	800080c <HAL_GPIO_Init+0x13c>
 8000870:	2505      	movs	r5, #5
 8000872:	e7cb      	b.n	800080c <HAL_GPIO_Init+0x13c>
 8000874:	40013c00 	.word	0x40013c00
 8000878:	40020000 	.word	0x40020000
 800087c:	40023800 	.word	0x40023800
 8000880:	40021400 	.word	0x40021400

08000884 <HAL_GPIO_ReadPin>:
  GPIO_PinState bitstatus;

  /* Check the parameters */
  assert_param(IS_GPIO_PIN(GPIO_Pin));

  if((GPIOx->IDR & GPIO_Pin) != (uint32_t)GPIO_PIN_RESET)
 8000884:	6903      	ldr	r3, [r0, #16]
 8000886:	4219      	tst	r1, r3
  else
  {
    bitstatus = GPIO_PIN_RESET;
  }
  return bitstatus;
}
 8000888:	bf14      	ite	ne
 800088a:	2001      	movne	r0, #1
 800088c:	2000      	moveq	r0, #0
 800088e:	4770      	bx	lr

08000890 <HAL_PCD_Init>:
  *         parameters in the PCD_InitTypeDef and initialize the associated handle.
  * @param  hpcd PCD handle
  * @retval HAL status
  */
HAL_StatusTypeDef HAL_PCD_Init(PCD_HandleTypeDef *hpcd)
{ 
 8000890:	b5f0      	push	{r4, r5, r6, r7, lr}
  uint32_t i = 0U;
  
  /* Check the PCD handle allocation */
  if(hpcd == NULL)
 8000892:	4606      	mov	r6, r0
{ 
 8000894:	b08b      	sub	sp, #44	; 0x2c
  if(hpcd == NULL)
 8000896:	2800      	cmp	r0, #0
 8000898:	d06a      	beq.n	8000970 <HAL_PCD_Init+0xe0>
  }
  
  /* Check the parameters */
  assert_param(IS_PCD_ALL_INSTANCE(hpcd->Instance));

  hpcd->State = HAL_PCD_STATE_BUSY;
 800089a:	2303      	movs	r3, #3
  
  /* Init the low level hardware : GPIO, CLOCK, NVIC... */
  HAL_PCD_MspInit(hpcd);

  /* Disable the Interrupts */
 __HAL_PCD_DISABLE(hpcd);
 800089c:	4634      	mov	r4, r6
  hpcd->State = HAL_PCD_STATE_BUSY;
 800089e:	f880 33b9 	strb.w	r3, [r0, #953]	; 0x3b9
  HAL_PCD_MspInit(hpcd);
 80008a2:	f002 fa3b 	bl	8002d1c <HAL_PCD_MspInit>
 __HAL_PCD_DISABLE(hpcd);
 80008a6:	f854 0b10 	ldr.w	r0, [r4], #16
 80008aa:	f001 f94f 	bl	8001b4c <USB_DisableGlobalInt>
 
 /*Init the Core (common init.) */
 USB_CoreInit(hpcd->Instance, hpcd->Init);
 80008ae:	cc0f      	ldmia	r4!, {r0, r1, r2, r3}
 80008b0:	466d      	mov	r5, sp
 80008b2:	c50f      	stmia	r5!, {r0, r1, r2, r3}
 80008b4:	cc0f      	ldmia	r4!, {r0, r1, r2, r3}
 80008b6:	c50f      	stmia	r5!, {r0, r1, r2, r3}
 80008b8:	e894 0003 	ldmia.w	r4, {r0, r1}
 80008bc:	e885 0003 	stmia.w	r5, {r0, r1}
 80008c0:	1d37      	adds	r7, r6, #4
 80008c2:	e897 000e 	ldmia.w	r7, {r1, r2, r3}
 80008c6:	6830      	ldr	r0, [r6, #0]
 80008c8:	f001 f900 	bl	8001acc <USB_CoreInit>
 
 /* Force Device Mode*/
 USB_SetCurrentMode(hpcd->Instance , USB_OTG_DEVICE_MODE);
 80008cc:	2100      	movs	r1, #0
 80008ce:	6830      	ldr	r0, [r6, #0]
 80008d0:	f001 f942 	bl	8001b58 <USB_SetCurrentMode>
 
 /* Init endpoints structures */
 for (i = 0U; i < 15U; i++)
 80008d4:	2100      	movs	r1, #0
 80008d6:	4633      	mov	r3, r6
 USB_SetCurrentMode(hpcd->Instance , USB_OTG_DEVICE_MODE);
 80008d8:	4632      	mov	r2, r6
 80008da:	f106 0410 	add.w	r4, r6, #16
 {
   /* Init ep structure */
   hpcd->IN_ep[i].is_in = 1U;
 80008de:	2501      	movs	r5, #1
   hpcd->IN_ep[i].num = i;
   hpcd->IN_ep[i].tx_fifo_num = i;
   /* Control until ep is activated */
   hpcd->IN_ep[i].type = EP_TYPE_CTRL;
 80008e0:	4608      	mov	r0, r1
   hpcd->IN_ep[i].num = i;
 80008e2:	f882 1038 	strb.w	r1, [r2, #56]	; 0x38
   hpcd->IN_ep[i].tx_fifo_num = i;
 80008e6:	87d1      	strh	r1, [r2, #62]	; 0x3e
 for (i = 0U; i < 15U; i++)
 80008e8:	3101      	adds	r1, #1
 80008ea:	290f      	cmp	r1, #15
   hpcd->IN_ep[i].is_in = 1U;
 80008ec:	f882 5039 	strb.w	r5, [r2, #57]	; 0x39
   hpcd->IN_ep[i].type = EP_TYPE_CTRL;
 80008f0:	f882 003b 	strb.w	r0, [r2, #59]	; 0x3b
   hpcd->IN_ep[i].maxpacket = 0U;
 80008f4:	6410      	str	r0, [r2, #64]	; 0x40
   hpcd->IN_ep[i].xfer_buff = 0U;
 80008f6:	6450      	str	r0, [r2, #68]	; 0x44
   hpcd->IN_ep[i].xfer_len = 0U;
 80008f8:	64d0      	str	r0, [r2, #76]	; 0x4c
 80008fa:	f102 021c 	add.w	r2, r2, #28
 for (i = 0U; i < 15U; i++)
 80008fe:	d1f0      	bne.n	80008e2 <HAL_PCD_Init+0x52>
   hpcd->OUT_ep[i].type = EP_TYPE_CTRL;
   hpcd->OUT_ep[i].maxpacket = 0U;
   hpcd->OUT_ep[i].xfer_buff = 0U;
   hpcd->OUT_ep[i].xfer_len = 0U;
   
   hpcd->Instance->DIEPTXF[i] = 0U;
 8000900:	2200      	movs	r2, #0
 8000902:	f8d6 e000 	ldr.w	lr, [r6]
   hpcd->OUT_ep[i].is_in = 0U;
 8000906:	4611      	mov	r1, r2
   hpcd->Instance->DIEPTXF[i] = 0U;
 8000908:	f102 0040 	add.w	r0, r2, #64	; 0x40
   hpcd->OUT_ep[i].num = i;
 800090c:	f883 21f8 	strb.w	r2, [r3, #504]	; 0x1f8
   hpcd->IN_ep[i].tx_fifo_num = i;
 8000910:	87da      	strh	r2, [r3, #62]	; 0x3e
   hpcd->Instance->DIEPTXF[i] = 0U;
 8000912:	eb0e 0080 	add.w	r0, lr, r0, lsl #2
 for (i = 0U; i < 15U; i++)
 8000916:	3201      	adds	r2, #1
 8000918:	2a0f      	cmp	r2, #15
   hpcd->OUT_ep[i].is_in = 0U;
 800091a:	f883 11f9 	strb.w	r1, [r3, #505]	; 0x1f9
   hpcd->OUT_ep[i].type = EP_TYPE_CTRL;
 800091e:	f883 11fb 	strb.w	r1, [r3, #507]	; 0x1fb
   hpcd->OUT_ep[i].maxpacket = 0U;
 8000922:	f8c3 1200 	str.w	r1, [r3, #512]	; 0x200
   hpcd->OUT_ep[i].xfer_buff = 0U;
 8000926:	f8c3 1204 	str.w	r1, [r3, #516]	; 0x204
   hpcd->OUT_ep[i].xfer_len = 0U;
 800092a:	f8c3 120c 	str.w	r1, [r3, #524]	; 0x20c
   hpcd->Instance->DIEPTXF[i] = 0U;
 800092e:	6041      	str	r1, [r0, #4]
 8000930:	f103 031c 	add.w	r3, r3, #28
 for (i = 0U; i < 15U; i++)
 8000934:	d1e8      	bne.n	8000908 <HAL_PCD_Init+0x78>
 }
 
 /* Init Device */
 USB_DevInit(hpcd->Instance, hpcd->Init);
 8000936:	cc0f      	ldmia	r4!, {r0, r1, r2, r3}
 8000938:	466d      	mov	r5, sp
 800093a:	c50f      	stmia	r5!, {r0, r1, r2, r3}
 800093c:	cc0f      	ldmia	r4!, {r0, r1, r2, r3}
 800093e:	c50f      	stmia	r5!, {r0, r1, r2, r3}
 8000940:	e894 0003 	ldmia.w	r4, {r0, r1}
 8000944:	e885 0003 	stmia.w	r5, {r0, r1}
 8000948:	4670      	mov	r0, lr
 800094a:	e897 000e 	ldmia.w	r7, {r1, r2, r3}
 800094e:	f001 f91b 	bl	8001b88 <USB_DevInit>
 
 hpcd->State= HAL_PCD_STATE_READY;
 8000952:	2301      	movs	r3, #1
 8000954:	f886 33b9 	strb.w	r3, [r6, #953]	; 0x3b9
 
#ifdef USB_OTG_GLPMCFG_LPMEN
 /* Activate LPM */
 if (hpcd->Init.lpm_enable == 1U)
 8000958:	6a73      	ldr	r3, [r6, #36]	; 0x24
 800095a:	2b01      	cmp	r3, #1
 800095c:	d102      	bne.n	8000964 <HAL_PCD_Init+0xd4>
 {
   HAL_PCDEx_ActivateLPM(hpcd);
 800095e:	4630      	mov	r0, r6
 8000960:	f000 fc17 	bl	8001192 <HAL_PCDEx_ActivateLPM>
 {
   HAL_PCDEx_ActivateBCD(hpcd);
 }
#endif /* USB_OTG_GCCFG_BCDEN */
 
 USB_DevDisconnect (hpcd->Instance);  
 8000964:	6830      	ldr	r0, [r6, #0]
 8000966:	f001 fc3a 	bl	80021de <USB_DevDisconnect>
 return HAL_OK;
 800096a:	2000      	movs	r0, #0
}
 800096c:	b00b      	add	sp, #44	; 0x2c
 800096e:	bdf0      	pop	{r4, r5, r6, r7, pc}
    return HAL_ERROR;
 8000970:	2001      	movs	r0, #1
 8000972:	e7fb      	b.n	800096c <HAL_PCD_Init+0xdc>

08000974 <HAL_PCD_Start>:
  * @param  hpcd PCD handle
  * @retval HAL status
  */
HAL_StatusTypeDef HAL_PCD_Start(PCD_HandleTypeDef *hpcd)
{ 
  __HAL_LOCK(hpcd); 
 8000974:	f890 33b8 	ldrb.w	r3, [r0, #952]	; 0x3b8
 8000978:	2b01      	cmp	r3, #1
{ 
 800097a:	b510      	push	{r4, lr}
 800097c:	4604      	mov	r4, r0
  __HAL_LOCK(hpcd); 
 800097e:	d00c      	beq.n	800099a <HAL_PCD_Start+0x26>
 8000980:	2301      	movs	r3, #1
 8000982:	f880 33b8 	strb.w	r3, [r0, #952]	; 0x3b8
  USB_DevConnect (hpcd->Instance);  
 8000986:	6800      	ldr	r0, [r0, #0]
 8000988:	f001 fc1d 	bl	80021c6 <USB_DevConnect>
  __HAL_PCD_ENABLE(hpcd);
 800098c:	6820      	ldr	r0, [r4, #0]
 800098e:	f001 f8d7 	bl	8001b40 <USB_EnableGlobalInt>
  __HAL_UNLOCK(hpcd); 
 8000992:	2000      	movs	r0, #0
 8000994:	f884 03b8 	strb.w	r0, [r4, #952]	; 0x3b8
  return HAL_OK;
 8000998:	bd10      	pop	{r4, pc}
  __HAL_LOCK(hpcd); 
 800099a:	2002      	movs	r0, #2
}
 800099c:	bd10      	pop	{r4, pc}
	...

080009a0 <HAL_PCD_IRQHandler>:
  * @brief  Handles PCD interrupt request.
  * @param  hpcd PCD handle
  * @retval HAL status
  */
void HAL_PCD_IRQHandler(PCD_HandleTypeDef *hpcd)
{
 80009a0:	e92d 4ff0 	stmdb	sp!, {r4, r5, r6, r7, r8, r9, sl, fp, lr}
  USB_OTG_GlobalTypeDef *USBx = hpcd->Instance;
 80009a4:	f8d0 9000 	ldr.w	r9, [r0]
{
 80009a8:	b087      	sub	sp, #28
 80009aa:	4604      	mov	r4, r0
  uint32_t fifoemptymsk = 0U, temp = 0U;
  USB_OTG_EPTypeDef *ep;
  uint32_t hclk = 180000000U;
  
  /* ensure that we are in device mode */
  if (USB_GetMode(hpcd->Instance) == USB_OTG_MODE_DEVICE)
 80009ac:	4648      	mov	r0, r9
 80009ae:	f001 fc50 	bl	8002252 <USB_GetMode>
 80009b2:	9002      	str	r0, [sp, #8]
 80009b4:	2800      	cmp	r0, #0
 80009b6:	f040 8150 	bne.w	8000c5a <HAL_PCD_IRQHandler+0x2ba>
  {    
    /* avoid spurious interrupt */
    if(__HAL_PCD_IS_INVALID_INTERRUPT(hpcd)) 
 80009ba:	6820      	ldr	r0, [r4, #0]
 80009bc:	f001 fc1b 	bl	80021f6 <USB_ReadInterrupts>
 80009c0:	2800      	cmp	r0, #0
 80009c2:	f000 814a 	beq.w	8000c5a <HAL_PCD_IRQHandler+0x2ba>
    {
      return;
    }
    
    if(__HAL_PCD_GET_FLAG(hpcd, USB_OTG_GINTSTS_MMIS))
 80009c6:	6820      	ldr	r0, [r4, #0]
 80009c8:	f001 fc15 	bl	80021f6 <USB_ReadInterrupts>
 80009cc:	0782      	lsls	r2, r0, #30
    {
     /* incorrect mode, acknowledge the interrupt */
      __HAL_PCD_CLEAR_FLAG(hpcd, USB_OTG_GINTSTS_MMIS);
 80009ce:	bf48      	it	mi
 80009d0:	6822      	ldrmi	r2, [r4, #0]
    }
    
    if(__HAL_PCD_GET_FLAG(hpcd, USB_OTG_GINTSTS_OEPINT))
 80009d2:	6820      	ldr	r0, [r4, #0]
      __HAL_PCD_CLEAR_FLAG(hpcd, USB_OTG_GINTSTS_MMIS);
 80009d4:	bf42      	ittt	mi
 80009d6:	6953      	ldrmi	r3, [r2, #20]
 80009d8:	f003 0302 	andmi.w	r3, r3, #2
 80009dc:	6153      	strmi	r3, [r2, #20]
    if(__HAL_PCD_GET_FLAG(hpcd, USB_OTG_GINTSTS_OEPINT))
 80009de:	f001 fc0a 	bl	80021f6 <USB_ReadInterrupts>
 80009e2:	f410 2500 	ands.w	r5, r0, #524288	; 0x80000
 80009e6:	d00a      	beq.n	80009fe <HAL_PCD_IRQHandler+0x5e>
    {
      epnum = 0U;
      
      /* Read in the device interrupt bits */
      ep_intr = USB_ReadDevAllOutEpInterrupt(hpcd->Instance);
 80009e8:	6820      	ldr	r0, [r4, #0]
 80009ea:	f001 fc08 	bl	80021fe <USB_ReadDevAllOutEpInterrupt>
 80009ee:	f509 6630 	add.w	r6, r9, #2816	; 0xb00
 80009f2:	4607      	mov	r7, r0
 80009f4:	46a2      	mov	sl, r4
      epnum = 0U;
 80009f6:	2500      	movs	r5, #0
      
      while ( ep_intr )
 80009f8:	2f00      	cmp	r7, #0
 80009fa:	f040 8131 	bne.w	8000c60 <HAL_PCD_IRQHandler+0x2c0>
        epnum++;
        ep_intr >>= 1U;
      }
    }
    
    if(__HAL_PCD_GET_FLAG(hpcd, USB_OTG_GINTSTS_IEPINT))
 80009fe:	6820      	ldr	r0, [r4, #0]
 8000a00:	f001 fbf9 	bl	80021f6 <USB_ReadInterrupts>
 8000a04:	0340      	lsls	r0, r0, #13
 8000a06:	d50b      	bpl.n	8000a20 <HAL_PCD_IRQHandler+0x80>
    {
      /* Read in the device interrupt bits */
      ep_intr = USB_ReadDevAllInEpInterrupt(hpcd->Instance);
 8000a08:	6820      	ldr	r0, [r4, #0]
 8000a0a:	f001 fc00 	bl	800220e <USB_ReadDevAllInEpInterrupt>
 8000a0e:	4626      	mov	r6, r4
 8000a10:	9003      	str	r0, [sp, #12]
 8000a12:	f509 6810 	add.w	r8, r9, #2304	; 0x900
      
      epnum = 0U;
 8000a16:	2500      	movs	r5, #0
      
      while ( ep_intr )
 8000a18:	9b03      	ldr	r3, [sp, #12]
 8000a1a:	2b00      	cmp	r3, #0
 8000a1c:	f040 8166 	bne.w	8000cec <HAL_PCD_IRQHandler+0x34c>
        ep_intr >>= 1U;
      }
    }
    
    /* Handle Resume Interrupt */
    if(__HAL_PCD_GET_FLAG(hpcd, USB_OTG_GINTSTS_WKUINT))
 8000a20:	6820      	ldr	r0, [r4, #0]
 8000a22:	f001 fbe8 	bl	80021f6 <USB_ReadInterrupts>
 8000a26:	2800      	cmp	r0, #0
 8000a28:	da15      	bge.n	8000a56 <HAL_PCD_IRQHandler+0xb6>
    {    
      /* Clear the Remote Wake-up Signaling */
      USBx_DEVICE->DCTL &= ~USB_OTG_DCTL_RWUSIG;
 8000a2a:	f8d9 3804 	ldr.w	r3, [r9, #2052]	; 0x804
 8000a2e:	f023 0301 	bic.w	r3, r3, #1
 8000a32:	f8c9 3804 	str.w	r3, [r9, #2052]	; 0x804

#ifdef USB_OTG_GLPMCFG_LPMEN
      if(hpcd->LPM_State == LPM_L1)
 8000a36:	f894 33ec 	ldrb.w	r3, [r4, #1004]	; 0x3ec
 8000a3a:	2b01      	cmp	r3, #1
 8000a3c:	f040 81e4 	bne.w	8000e08 <HAL_PCD_IRQHandler+0x468>
      {
        hpcd->LPM_State = LPM_L0;
 8000a40:	2100      	movs	r1, #0
 8000a42:	f884 13ec 	strb.w	r1, [r4, #1004]	; 0x3ec
        HAL_PCDEx_LPM_Callback(hpcd, PCD_LPM_L0_ACTIVE);
 8000a46:	4620      	mov	r0, r4
 8000a48:	f002 faac 	bl	8002fa4 <HAL_PCDEx_LPM_Callback>
#endif /* USB_OTG_GLPMCFG_LPMEN */
      {
        HAL_PCD_ResumeCallback(hpcd);
      }
      
      __HAL_PCD_CLEAR_FLAG(hpcd, USB_OTG_GINTSTS_WKUINT);
 8000a4c:	6822      	ldr	r2, [r4, #0]
 8000a4e:	6953      	ldr	r3, [r2, #20]
 8000a50:	f003 4300 	and.w	r3, r3, #2147483648	; 0x80000000
 8000a54:	6153      	str	r3, [r2, #20]
    }
    
    /* Handle Suspend Interrupt */
    if(__HAL_PCD_GET_FLAG(hpcd, USB_OTG_GINTSTS_USBSUSP))
 8000a56:	6820      	ldr	r0, [r4, #0]
 8000a58:	f001 fbcd 	bl	80021f6 <USB_ReadInterrupts>
 8000a5c:	0507      	lsls	r7, r0, #20
 8000a5e:	d50b      	bpl.n	8000a78 <HAL_PCD_IRQHandler+0xd8>
    {
      if((USBx_DEVICE->DSTS & USB_OTG_DSTS_SUSPSTS) == USB_OTG_DSTS_SUSPSTS)
 8000a60:	f8d9 3808 	ldr.w	r3, [r9, #2056]	; 0x808
 8000a64:	07de      	lsls	r6, r3, #31
 8000a66:	d502      	bpl.n	8000a6e <HAL_PCD_IRQHandler+0xce>
      {
        
        HAL_PCD_SuspendCallback(hpcd);
 8000a68:	4620      	mov	r0, r4
 8000a6a:	f002 f9b5 	bl	8002dd8 <HAL_PCD_SuspendCallback>
      }
      __HAL_PCD_CLEAR_FLAG(hpcd, USB_OTG_GINTSTS_USBSUSP);
 8000a6e:	6822      	ldr	r2, [r4, #0]
 8000a70:	6953      	ldr	r3, [r2, #20]
 8000a72:	f403 6300 	and.w	r3, r3, #2048	; 0x800
 8000a76:	6153      	str	r3, [r2, #20]
    }

#ifdef USB_OTG_GLPMCFG_LPMEN
    /* Handle LPM Interrupt */ 
    if(__HAL_PCD_GET_FLAG(hpcd, USB_OTG_GINTSTS_LPMINT))
 8000a78:	6820      	ldr	r0, [r4, #0]
 8000a7a:	f001 fbbc 	bl	80021f6 <USB_ReadInterrupts>
 8000a7e:	0100      	lsls	r0, r0, #4
 8000a80:	d514      	bpl.n	8000aac <HAL_PCD_IRQHandler+0x10c>
    {
      __HAL_PCD_CLEAR_FLAG(hpcd, USB_OTG_GINTSTS_LPMINT);      
 8000a82:	6823      	ldr	r3, [r4, #0]
 8000a84:	695a      	ldr	r2, [r3, #20]
 8000a86:	f002 6200 	and.w	r2, r2, #134217728	; 0x8000000
 8000a8a:	615a      	str	r2, [r3, #20]
      if( hpcd->LPM_State == LPM_L0)
 8000a8c:	f894 23ec 	ldrb.w	r2, [r4, #1004]	; 0x3ec
 8000a90:	2a00      	cmp	r2, #0
 8000a92:	f040 81bd 	bne.w	8000e10 <HAL_PCD_IRQHandler+0x470>
      {
        hpcd->LPM_State = LPM_L1;
        hpcd->BESL = (hpcd->Instance->GLPMCFG & USB_OTG_GLPMCFG_BESL) >> 2U;
 8000a96:	6d5b      	ldr	r3, [r3, #84]	; 0x54
        hpcd->LPM_State = LPM_L1;
 8000a98:	2101      	movs	r1, #1
        hpcd->BESL = (hpcd->Instance->GLPMCFG & USB_OTG_GLPMCFG_BESL) >> 2U;
 8000a9a:	f3c3 0383 	ubfx	r3, r3, #2, #4
        hpcd->LPM_State = LPM_L1;
 8000a9e:	f884 13ec 	strb.w	r1, [r4, #1004]	; 0x3ec
        hpcd->BESL = (hpcd->Instance->GLPMCFG & USB_OTG_GLPMCFG_BESL) >> 2U;
 8000aa2:	f8c4 33f0 	str.w	r3, [r4, #1008]	; 0x3f0
        HAL_PCDEx_LPM_Callback(hpcd, PCD_LPM_L1_ACTIVE);
 8000aa6:	4620      	mov	r0, r4
 8000aa8:	f002 fa7c 	bl	8002fa4 <HAL_PCDEx_LPM_Callback>
      }
    }
#endif /* USB_OTG_GLPMCFG_LPMEN */

    /* Handle Reset Interrupt */
    if(__HAL_PCD_GET_FLAG(hpcd, USB_OTG_GINTSTS_USBRST))
 8000aac:	6820      	ldr	r0, [r4, #0]
 8000aae:	f001 fba2 	bl	80021f6 <USB_ReadInterrupts>
 8000ab2:	04c1      	lsls	r1, r0, #19
 8000ab4:	d537      	bpl.n	8000b26 <HAL_PCD_IRQHandler+0x186>
    {
      USBx_DEVICE->DCTL &= ~USB_OTG_DCTL_RWUSIG; 
 8000ab6:	f509 6600 	add.w	r6, r9, #2048	; 0x800
 8000aba:	6873      	ldr	r3, [r6, #4]
      USB_FlushTxFifo(hpcd->Instance , 0x10U);
 8000abc:	6820      	ldr	r0, [r4, #0]
      USBx_DEVICE->DCTL &= ~USB_OTG_DCTL_RWUSIG; 
 8000abe:	f023 0301 	bic.w	r3, r3, #1
 8000ac2:	6073      	str	r3, [r6, #4]
      USB_FlushTxFifo(hpcd->Instance , 0x10U);
 8000ac4:	2110      	movs	r1, #16
 8000ac6:	f001 f903 	bl	8001cd0 <USB_FlushTxFifo>
      
      for (i = 0U; i < hpcd->Init.dev_endpoints; i++)
 8000aca:	6861      	ldr	r1, [r4, #4]
 8000acc:	f509 6310 	add.w	r3, r9, #2304	; 0x900
      {
        USBx_INEP(i)->DIEPINT = 0xFFU;
 8000ad0:	22ff      	movs	r2, #255	; 0xff
      for (i = 0U; i < hpcd->Init.dev_endpoints; i++)
 8000ad2:	9802      	ldr	r0, [sp, #8]
 8000ad4:	4288      	cmp	r0, r1
 8000ad6:	f040 819f 	bne.w	8000e18 <HAL_PCD_IRQHandler+0x478>
        USBx_OUTEP(i)->DOEPINT = 0xFFU;
      }
      USBx_DEVICE->DAINT = 0xFFFFFFFFU;
 8000ada:	f04f 33ff 	mov.w	r3, #4294967295
 8000ade:	61b3      	str	r3, [r6, #24]
      USBx_DEVICE->DAINTMSK |= 0x10001U;
 8000ae0:	69f3      	ldr	r3, [r6, #28]
 8000ae2:	f043 1301 	orr.w	r3, r3, #65537	; 0x10001
 8000ae6:	61f3      	str	r3, [r6, #28]
      
      if(hpcd->Init.use_dedicated_ep1)
 8000ae8:	6b23      	ldr	r3, [r4, #48]	; 0x30
 8000aea:	2b00      	cmp	r3, #0
 8000aec:	f000 819c 	beq.w	8000e28 <HAL_PCD_IRQHandler+0x488>
      {
        USBx_DEVICE->DOUTEP1MSK |= (USB_OTG_DOEPMSK_STUPM | USB_OTG_DOEPMSK_XFRCM | USB_OTG_DOEPMSK_EPDM); 
 8000af0:	f8d6 3084 	ldr.w	r3, [r6, #132]	; 0x84
 8000af4:	f043 030b 	orr.w	r3, r3, #11
 8000af8:	f8c6 3084 	str.w	r3, [r6, #132]	; 0x84
        USBx_DEVICE->DINEP1MSK |= (USB_OTG_DIEPMSK_TOM | USB_OTG_DIEPMSK_XFRCM | USB_OTG_DIEPMSK_EPDM);  
 8000afc:	6c73      	ldr	r3, [r6, #68]	; 0x44
 8000afe:	f043 030b 	orr.w	r3, r3, #11
 8000b02:	6473      	str	r3, [r6, #68]	; 0x44
#endif /* USB_OTG_DOEPINT_OTEPSPR */
        USBx_DEVICE->DIEPMSK |= (USB_OTG_DIEPMSK_TOM | USB_OTG_DIEPMSK_XFRCM | USB_OTG_DIEPMSK_EPDM);
      }
      
      /* Set Default Address to 0 */
      USBx_DEVICE->DCFG &= ~USB_OTG_DCFG_DAD;
 8000b04:	f8d9 3800 	ldr.w	r3, [r9, #2048]	; 0x800
      
      /* setup EP0 to receive SETUP packets */
      USB_EP0_OutStart(hpcd->Instance, hpcd->Init.dma_enable, (uint8_t *)hpcd->Setup);
 8000b08:	7c21      	ldrb	r1, [r4, #16]
 8000b0a:	6820      	ldr	r0, [r4, #0]
      USBx_DEVICE->DCFG &= ~USB_OTG_DCFG_DAD;
 8000b0c:	f423 63fe 	bic.w	r3, r3, #2032	; 0x7f0
 8000b10:	f8c9 3800 	str.w	r3, [r9, #2048]	; 0x800
      USB_EP0_OutStart(hpcd->Instance, hpcd->Init.dma_enable, (uint8_t *)hpcd->Setup);
 8000b14:	f504 726f 	add.w	r2, r4, #956	; 0x3bc
 8000b18:	f001 fbba 	bl	8002290 <USB_EP0_OutStart>
        
      __HAL_PCD_CLEAR_FLAG(hpcd, USB_OTG_GINTSTS_USBRST);
 8000b1c:	6822      	ldr	r2, [r4, #0]
 8000b1e:	6953      	ldr	r3, [r2, #20]
 8000b20:	f403 5380 	and.w	r3, r3, #4096	; 0x1000
 8000b24:	6153      	str	r3, [r2, #20]
    }
    
    /* Handle Enumeration done Interrupt */
    if(__HAL_PCD_GET_FLAG(hpcd, USB_OTG_GINTSTS_ENUMDNE))
 8000b26:	6820      	ldr	r0, [r4, #0]
 8000b28:	f001 fb65 	bl	80021f6 <USB_ReadInterrupts>
 8000b2c:	0482      	lsls	r2, r0, #18
 8000b2e:	d51d      	bpl.n	8000b6c <HAL_PCD_IRQHandler+0x1cc>
    {
      USB_ActivateSetup(hpcd->Instance);
 8000b30:	6820      	ldr	r0, [r4, #0]
 8000b32:	f001 fb92 	bl	800225a <USB_ActivateSetup>
      hpcd->Instance->GUSBCFG &= ~USB_OTG_GUSBCFG_TRDT;
 8000b36:	6820      	ldr	r0, [r4, #0]
 8000b38:	68c3      	ldr	r3, [r0, #12]
 8000b3a:	f423 5370 	bic.w	r3, r3, #15360	; 0x3c00
 8000b3e:	60c3      	str	r3, [r0, #12]
      
      if ( USB_GetDevSpeed(hpcd->Instance) == USB_OTG_SPEED_HIGH)
 8000b40:	f001 f8ef 	bl	8001d22 <USB_GetDevSpeed>
 8000b44:	2800      	cmp	r0, #0
 8000b46:	f040 8178 	bne.w	8000e3a <HAL_PCD_IRQHandler+0x49a>
      {
        hpcd->Init.speed            = USB_OTG_SPEED_HIGH;
        hpcd->Init.ep0_mps          = USB_OTG_HS_MAX_PACKET_SIZE ;    
        hpcd->Instance->GUSBCFG |= (uint32_t)((USBD_HS_TRDT_VALUE << 10U) & USB_OTG_GUSBCFG_TRDT);
 8000b4a:	6822      	ldr	r2, [r4, #0]
        hpcd->Init.speed            = USB_OTG_SPEED_HIGH;
 8000b4c:	60e0      	str	r0, [r4, #12]
        hpcd->Init.ep0_mps          = USB_OTG_HS_MAX_PACKET_SIZE ;    
 8000b4e:	f44f 7300 	mov.w	r3, #512	; 0x200
 8000b52:	6163      	str	r3, [r4, #20]
        hpcd->Instance->GUSBCFG |= (uint32_t)((USBD_HS_TRDT_VALUE << 10U) & USB_OTG_GUSBCFG_TRDT);
 8000b54:	68d3      	ldr	r3, [r2, #12]
 8000b56:	f443 5310 	orr.w	r3, r3, #9216	; 0x2400
 8000b5a:	60d3      	str	r3, [r2, #12]
          /* hclk Clock Range between 32-180 MHz */
          hpcd->Instance->GUSBCFG |= (uint32_t)((0x6U << 10U) & USB_OTG_GUSBCFG_TRDT);
        }  
      }
      
      HAL_PCD_ResetCallback(hpcd);
 8000b5c:	4620      	mov	r0, r4
 8000b5e:	f002 f92a 	bl	8002db6 <HAL_PCD_ResetCallback>
      
      __HAL_PCD_CLEAR_FLAG(hpcd, USB_OTG_GINTSTS_ENUMDNE);
 8000b62:	6822      	ldr	r2, [r4, #0]
 8000b64:	6953      	ldr	r3, [r2, #20]
 8000b66:	f403 5300 	and.w	r3, r3, #8192	; 0x2000
 8000b6a:	6153      	str	r3, [r2, #20]
    }

    /* Handle RxQLevel Interrupt */
    if(__HAL_PCD_GET_FLAG(hpcd, USB_OTG_GINTSTS_RXFLVL))
 8000b6c:	6820      	ldr	r0, [r4, #0]
 8000b6e:	f001 fb42 	bl	80021f6 <USB_ReadInterrupts>
 8000b72:	06c3      	lsls	r3, r0, #27
 8000b74:	d52b      	bpl.n	8000bce <HAL_PCD_IRQHandler+0x22e>
    {
      USB_MASK_INTERRUPT(hpcd->Instance, USB_OTG_GINTSTS_RXFLVL);
 8000b76:	6822      	ldr	r2, [r4, #0]
 8000b78:	6993      	ldr	r3, [r2, #24]
 8000b7a:	f023 0310 	bic.w	r3, r3, #16
 8000b7e:	6193      	str	r3, [r2, #24]
      
      temp = USBx->GRXSTSP;
 8000b80:	f8d9 6020 	ldr.w	r6, [r9, #32]
      
      ep = &hpcd->OUT_ep[temp & USB_OTG_GRXSTSP_EPNUM];
      
      if(((temp & USB_OTG_GRXSTSP_PKTSTS) >> 17U) ==  STS_DATA_UPDT)
 8000b84:	f3c6 4343 	ubfx	r3, r6, #17, #4
 8000b88:	2b02      	cmp	r3, #2
      ep = &hpcd->OUT_ep[temp & USB_OTG_GRXSTSP_EPNUM];
 8000b8a:	f006 080f 	and.w	r8, r6, #15
      if(((temp & USB_OTG_GRXSTSP_PKTSTS) >> 17U) ==  STS_DATA_UPDT)
 8000b8e:	f040 81b5 	bne.w	8000efc <HAL_PCD_IRQHandler+0x55c>
      {
        if((temp & USB_OTG_GRXSTSP_BCNT) != 0U)
 8000b92:	f647 73f0 	movw	r3, #32752	; 0x7ff0
 8000b96:	421e      	tst	r6, r3
 8000b98:	d014      	beq.n	8000bc4 <HAL_PCD_IRQHandler+0x224>
        {
          USB_ReadPacket(USBx, ep->xfer_buff, (temp & USB_OTG_GRXSTSP_BCNT) >> 4U);
 8000b9a:	271c      	movs	r7, #28
 8000b9c:	fb07 4708 	mla	r7, r7, r8, r4
 8000ba0:	f3c6 160a 	ubfx	r6, r6, #4, #11
 8000ba4:	4632      	mov	r2, r6
 8000ba6:	f8d7 1204 	ldr.w	r1, [r7, #516]	; 0x204
 8000baa:	4648      	mov	r0, r9
 8000bac:	f001 fab5 	bl	800211a <USB_ReadPacket>
          ep->xfer_buff += (temp & USB_OTG_GRXSTSP_BCNT) >> 4U;
 8000bb0:	f8d7 3204 	ldr.w	r3, [r7, #516]	; 0x204
 8000bb4:	4433      	add	r3, r6
 8000bb6:	f8c7 3204 	str.w	r3, [r7, #516]	; 0x204
        }
      }
      else if (((temp & USB_OTG_GRXSTSP_PKTSTS) >> 17U) ==  STS_SETUP_UPDT)
      {
        USB_ReadPacket(USBx, (uint8_t *)hpcd->Setup, 8U);
        ep->xfer_count += (temp & USB_OTG_GRXSTSP_BCNT) >> 4U;
 8000bba:	f8d7 3210 	ldr.w	r3, [r7, #528]	; 0x210
 8000bbe:	441e      	add	r6, r3
 8000bc0:	f8c7 6210 	str.w	r6, [r7, #528]	; 0x210
      }
      USB_UNMASK_INTERRUPT(hpcd->Instance, USB_OTG_GINTSTS_RXFLVL);
 8000bc4:	6822      	ldr	r2, [r4, #0]
 8000bc6:	6993      	ldr	r3, [r2, #24]
 8000bc8:	f043 0310 	orr.w	r3, r3, #16
 8000bcc:	6193      	str	r3, [r2, #24]
    }
    
    /* Handle SOF Interrupt */
    if(__HAL_PCD_GET_FLAG(hpcd, USB_OTG_GINTSTS_SOF))
 8000bce:	6820      	ldr	r0, [r4, #0]
 8000bd0:	f001 fb11 	bl	80021f6 <USB_ReadInterrupts>
 8000bd4:	0707      	lsls	r7, r0, #28
 8000bd6:	d507      	bpl.n	8000be8 <HAL_PCD_IRQHandler+0x248>
    {
      HAL_PCD_SOFCallback(hpcd);
 8000bd8:	4620      	mov	r0, r4
 8000bda:	f002 f8e8 	bl	8002dae <HAL_PCD_SOFCallback>
      __HAL_PCD_CLEAR_FLAG(hpcd, USB_OTG_GINTSTS_SOF);
 8000bde:	6822      	ldr	r2, [r4, #0]
 8000be0:	6953      	ldr	r3, [r2, #20]
 8000be2:	f003 0308 	and.w	r3, r3, #8
 8000be6:	6153      	str	r3, [r2, #20]
    }
    
    /* Handle Incomplete ISO IN Interrupt */
    if(__HAL_PCD_GET_FLAG(hpcd, USB_OTG_GINTSTS_IISOIXFR))
 8000be8:	6820      	ldr	r0, [r4, #0]
 8000bea:	f001 fb04 	bl	80021f6 <USB_ReadInterrupts>
 8000bee:	02c6      	lsls	r6, r0, #11
 8000bf0:	d508      	bpl.n	8000c04 <HAL_PCD_IRQHandler+0x264>
    {
      HAL_PCD_ISOINIncompleteCallback(hpcd, epnum);
 8000bf2:	b2e9      	uxtb	r1, r5
 8000bf4:	4620      	mov	r0, r4
 8000bf6:	f002 f90f 	bl	8002e18 <HAL_PCD_ISOINIncompleteCallback>
      __HAL_PCD_CLEAR_FLAG(hpcd, USB_OTG_GINTSTS_IISOIXFR);
 8000bfa:	6822      	ldr	r2, [r4, #0]
 8000bfc:	6953      	ldr	r3, [r2, #20]
 8000bfe:	f403 1380 	and.w	r3, r3, #1048576	; 0x100000
 8000c02:	6153      	str	r3, [r2, #20]
    } 
    
    /* Handle Incomplete ISO OUT Interrupt */
    if(__HAL_PCD_GET_FLAG(hpcd, USB_OTG_GINTSTS_PXFR_INCOMPISOOUT))
 8000c04:	6820      	ldr	r0, [r4, #0]
 8000c06:	f001 faf6 	bl	80021f6 <USB_ReadInterrupts>
 8000c0a:	0280      	lsls	r0, r0, #10
 8000c0c:	d508      	bpl.n	8000c20 <HAL_PCD_IRQHandler+0x280>
    {
      HAL_PCD_ISOOUTIncompleteCallback(hpcd, epnum);
 8000c0e:	b2e9      	uxtb	r1, r5
 8000c10:	4620      	mov	r0, r4
 8000c12:	f002 f8fd 	bl	8002e10 <HAL_PCD_ISOOUTIncompleteCallback>
      __HAL_PCD_CLEAR_FLAG(hpcd, USB_OTG_GINTSTS_PXFR_INCOMPISOOUT);
 8000c16:	6822      	ldr	r2, [r4, #0]
 8000c18:	6953      	ldr	r3, [r2, #20]
 8000c1a:	f403 1300 	and.w	r3, r3, #2097152	; 0x200000
 8000c1e:	6153      	str	r3, [r2, #20]
    } 
    
    /* Handle Connection event Interrupt */
    if(__HAL_PCD_GET_FLAG(hpcd, USB_OTG_GINTSTS_SRQINT))
 8000c20:	6820      	ldr	r0, [r4, #0]
 8000c22:	f001 fae8 	bl	80021f6 <USB_ReadInterrupts>
 8000c26:	0041      	lsls	r1, r0, #1
 8000c28:	d507      	bpl.n	8000c3a <HAL_PCD_IRQHandler+0x29a>
    {
      HAL_PCD_ConnectCallback(hpcd);
 8000c2a:	4620      	mov	r0, r4
 8000c2c:	f002 f8f8 	bl	8002e20 <HAL_PCD_ConnectCallback>
      __HAL_PCD_CLEAR_FLAG(hpcd, USB_OTG_GINTSTS_SRQINT);
 8000c30:	6822      	ldr	r2, [r4, #0]
 8000c32:	6953      	ldr	r3, [r2, #20]
 8000c34:	f003 4380 	and.w	r3, r3, #1073741824	; 0x40000000
 8000c38:	6153      	str	r3, [r2, #20]
    } 
    
    /* Handle Disconnection event Interrupt */
    if(__HAL_PCD_GET_FLAG(hpcd, USB_OTG_GINTSTS_OTGINT))
 8000c3a:	6820      	ldr	r0, [r4, #0]
 8000c3c:	f001 fadb 	bl	80021f6 <USB_ReadInterrupts>
 8000c40:	0742      	lsls	r2, r0, #29
 8000c42:	d50a      	bpl.n	8000c5a <HAL_PCD_IRQHandler+0x2ba>
    {
      temp = hpcd->Instance->GOTGINT;
 8000c44:	6823      	ldr	r3, [r4, #0]
 8000c46:	685d      	ldr	r5, [r3, #4]
      
      if((temp & USB_OTG_GOTGINT_SEDET) == USB_OTG_GOTGINT_SEDET)
 8000c48:	076b      	lsls	r3, r5, #29
 8000c4a:	d502      	bpl.n	8000c52 <HAL_PCD_IRQHandler+0x2b2>
      {
        HAL_PCD_DisconnectCallback(hpcd);
 8000c4c:	4620      	mov	r0, r4
 8000c4e:	f002 f8eb 	bl	8002e28 <HAL_PCD_DisconnectCallback>
      }
      hpcd->Instance->GOTGINT |= temp;
 8000c52:	6823      	ldr	r3, [r4, #0]
 8000c54:	685a      	ldr	r2, [r3, #4]
 8000c56:	4315      	orrs	r5, r2
 8000c58:	605d      	str	r5, [r3, #4]
    }
  }
}
 8000c5a:	b007      	add	sp, #28
 8000c5c:	e8bd 8ff0 	ldmia.w	sp!, {r4, r5, r6, r7, r8, r9, sl, fp, pc}
        if (ep_intr & 0x1U)
 8000c60:	07fb      	lsls	r3, r7, #31
 8000c62:	d53d      	bpl.n	8000ce0 <HAL_PCD_IRQHandler+0x340>
          epint = USB_ReadDevOutEPInterrupt(hpcd->Instance, epnum);
 8000c64:	fa5f fb85 	uxtb.w	fp, r5
 8000c68:	4659      	mov	r1, fp
 8000c6a:	6820      	ldr	r0, [r4, #0]
 8000c6c:	f001 fad7 	bl	800221e <USB_ReadDevOutEPInterrupt>
          if(( epint & USB_OTG_DOEPINT_XFRC) == USB_OTG_DOEPINT_XFRC)
 8000c70:	f010 0f01 	tst.w	r0, #1
          epint = USB_ReadDevOutEPInterrupt(hpcd->Instance, epnum);
 8000c74:	4680      	mov	r8, r0
          if(( epint & USB_OTG_DOEPINT_XFRC) == USB_OTG_DOEPINT_XFRC)
 8000c76:	d021      	beq.n	8000cbc <HAL_PCD_IRQHandler+0x31c>
            CLEAR_OUT_EP_INTR(epnum, USB_OTG_DOEPINT_XFRC);
 8000c78:	2101      	movs	r1, #1
 8000c7a:	60b1      	str	r1, [r6, #8]
            if(hpcd->Init.dma_enable == 1U)
 8000c7c:	6921      	ldr	r1, [r4, #16]
 8000c7e:	2901      	cmp	r1, #1
 8000c80:	d10c      	bne.n	8000c9c <HAL_PCD_IRQHandler+0x2fc>
              hpcd->OUT_ep[epnum].xfer_count = hpcd->OUT_ep[epnum].maxpacket- (USBx_OUTEP(epnum)->DOEPTSIZ & USB_OTG_DOEPTSIZ_XFRSIZ); 
 8000c82:	6931      	ldr	r1, [r6, #16]
 8000c84:	f8da 0200 	ldr.w	r0, [sl, #512]	; 0x200
 8000c88:	f3c1 0112 	ubfx	r1, r1, #0, #19
 8000c8c:	1a41      	subs	r1, r0, r1
 8000c8e:	f8ca 1210 	str.w	r1, [sl, #528]	; 0x210
              hpcd->OUT_ep[epnum].xfer_buff += hpcd->OUT_ep[epnum].maxpacket;            
 8000c92:	f8da 1204 	ldr.w	r1, [sl, #516]	; 0x204
 8000c96:	4408      	add	r0, r1
 8000c98:	f8ca 0204 	str.w	r0, [sl, #516]	; 0x204
            HAL_PCD_DataOutStageCallback(hpcd, epnum);
 8000c9c:	4659      	mov	r1, fp
 8000c9e:	4620      	mov	r0, r4
 8000ca0:	f002 f874 	bl	8002d8c <HAL_PCD_DataOutStageCallback>
            if(hpcd->Init.dma_enable == 1U)
 8000ca4:	6921      	ldr	r1, [r4, #16]
 8000ca6:	2901      	cmp	r1, #1
 8000ca8:	d108      	bne.n	8000cbc <HAL_PCD_IRQHandler+0x31c>
              if((epnum == 0U) && (hpcd->OUT_ep[epnum].xfer_len == 0U))
 8000caa:	b93d      	cbnz	r5, 8000cbc <HAL_PCD_IRQHandler+0x31c>
 8000cac:	f8d4 220c 	ldr.w	r2, [r4, #524]	; 0x20c
 8000cb0:	b922      	cbnz	r2, 8000cbc <HAL_PCD_IRQHandler+0x31c>
                USB_EP0_OutStart(hpcd->Instance, 1U, (uint8_t *)hpcd->Setup);
 8000cb2:	f504 726f 	add.w	r2, r4, #956	; 0x3bc
 8000cb6:	6820      	ldr	r0, [r4, #0]
 8000cb8:	f001 faea 	bl	8002290 <USB_EP0_OutStart>
          if(( epint & USB_OTG_DOEPINT_STUP) == USB_OTG_DOEPINT_STUP)
 8000cbc:	f018 0f08 	tst.w	r8, #8
 8000cc0:	d004      	beq.n	8000ccc <HAL_PCD_IRQHandler+0x32c>
            HAL_PCD_SetupStageCallback(hpcd);
 8000cc2:	4620      	mov	r0, r4
 8000cc4:	f002 f85c 	bl	8002d80 <HAL_PCD_SetupStageCallback>
            CLEAR_OUT_EP_INTR(epnum, USB_OTG_DOEPINT_STUP);
 8000cc8:	2308      	movs	r3, #8
 8000cca:	60b3      	str	r3, [r6, #8]
          if(( epint & USB_OTG_DOEPINT_OTEPDIS) == USB_OTG_DOEPINT_OTEPDIS)
 8000ccc:	f018 0f10 	tst.w	r8, #16
            CLEAR_OUT_EP_INTR(epnum, USB_OTG_DOEPINT_OTEPDIS);
 8000cd0:	bf1c      	itt	ne
 8000cd2:	2310      	movne	r3, #16
 8000cd4:	60b3      	strne	r3, [r6, #8]
          if(( epint & USB_OTG_DOEPINT_OTEPSPR) == USB_OTG_DOEPINT_OTEPSPR)
 8000cd6:	f018 0f20 	tst.w	r8, #32
            CLEAR_OUT_EP_INTR(epnum, USB_OTG_DOEPINT_OTEPSPR);
 8000cda:	bf1c      	itt	ne
 8000cdc:	2320      	movne	r3, #32
 8000cde:	60b3      	strne	r3, [r6, #8]
        epnum++;
 8000ce0:	3501      	adds	r5, #1
        ep_intr >>= 1U;
 8000ce2:	087f      	lsrs	r7, r7, #1
 8000ce4:	3620      	adds	r6, #32
 8000ce6:	f10a 0a1c 	add.w	sl, sl, #28
 8000cea:	e685      	b.n	80009f8 <HAL_PCD_IRQHandler+0x58>
        if (ep_intr & 0x1U) /* In ITR */
 8000cec:	9b03      	ldr	r3, [sp, #12]
 8000cee:	07d9      	lsls	r1, r3, #31
 8000cf0:	d558      	bpl.n	8000da4 <HAL_PCD_IRQHandler+0x404>
          epint = USB_ReadDevInEPInterrupt(hpcd->Instance, epnum);
 8000cf2:	fa5f fb85 	uxtb.w	fp, r5
 8000cf6:	4659      	mov	r1, fp
 8000cf8:	6820      	ldr	r0, [r4, #0]
 8000cfa:	f001 fa9a 	bl	8002232 <USB_ReadDevInEPInterrupt>
           if(( epint & USB_OTG_DIEPINT_XFRC) == USB_OTG_DIEPINT_XFRC)
 8000cfe:	07c2      	lsls	r2, r0, #31
          epint = USB_ReadDevInEPInterrupt(hpcd->Instance, epnum);
 8000d00:	4607      	mov	r7, r0
           if(( epint & USB_OTG_DIEPINT_XFRC) == USB_OTG_DIEPINT_XFRC)
 8000d02:	d520      	bpl.n	8000d46 <HAL_PCD_IRQHandler+0x3a6>
            USBx_DEVICE->DIEPEMPMSK &= ~fifoemptymsk;
 8000d04:	f8d9 3834 	ldr.w	r3, [r9, #2100]	; 0x834
            fifoemptymsk = 0x1U << epnum;
 8000d08:	2101      	movs	r1, #1
 8000d0a:	40a9      	lsls	r1, r5
            USBx_DEVICE->DIEPEMPMSK &= ~fifoemptymsk;
 8000d0c:	ea23 0301 	bic.w	r3, r3, r1
 8000d10:	f8c9 3834 	str.w	r3, [r9, #2100]	; 0x834
            CLEAR_IN_EP_INTR(epnum, USB_OTG_DIEPINT_XFRC);
 8000d14:	2301      	movs	r3, #1
 8000d16:	f8c8 3008 	str.w	r3, [r8, #8]
            if (hpcd->Init.dma_enable == 1U)
 8000d1a:	6923      	ldr	r3, [r4, #16]
 8000d1c:	2b01      	cmp	r3, #1
              hpcd->IN_ep[epnum].xfer_buff += hpcd->IN_ep[epnum].maxpacket; 
 8000d1e:	bf01      	itttt	eq
 8000d20:	6c73      	ldreq	r3, [r6, #68]	; 0x44
 8000d22:	6c32      	ldreq	r2, [r6, #64]	; 0x40
 8000d24:	189b      	addeq	r3, r3, r2
 8000d26:	6473      	streq	r3, [r6, #68]	; 0x44
            HAL_PCD_DataInStageCallback(hpcd, epnum);
 8000d28:	4659      	mov	r1, fp
 8000d2a:	4620      	mov	r0, r4
 8000d2c:	f002 f837 	bl	8002d9e <HAL_PCD_DataInStageCallback>
            if (hpcd->Init.dma_enable == 1U)
 8000d30:	6921      	ldr	r1, [r4, #16]
 8000d32:	2901      	cmp	r1, #1
 8000d34:	d107      	bne.n	8000d46 <HAL_PCD_IRQHandler+0x3a6>
              if((epnum == 0U) && (hpcd->IN_ep[epnum].xfer_len == 0U))
 8000d36:	b935      	cbnz	r5, 8000d46 <HAL_PCD_IRQHandler+0x3a6>
 8000d38:	6ce3      	ldr	r3, [r4, #76]	; 0x4c
 8000d3a:	b923      	cbnz	r3, 8000d46 <HAL_PCD_IRQHandler+0x3a6>
                USB_EP0_OutStart(hpcd->Instance, 1U, (uint8_t *)hpcd->Setup);
 8000d3c:	f504 726f 	add.w	r2, r4, #956	; 0x3bc
 8000d40:	6820      	ldr	r0, [r4, #0]
 8000d42:	f001 faa5 	bl	8002290 <USB_EP0_OutStart>
           if(( epint & USB_OTG_DIEPINT_TOC) == USB_OTG_DIEPINT_TOC)
 8000d46:	073b      	lsls	r3, r7, #28
            CLEAR_IN_EP_INTR(epnum, USB_OTG_DIEPINT_TOC);
 8000d48:	bf44      	itt	mi
 8000d4a:	2308      	movmi	r3, #8
 8000d4c:	f8c8 3008 	strmi.w	r3, [r8, #8]
          if(( epint & USB_OTG_DIEPINT_ITTXFE) == USB_OTG_DIEPINT_ITTXFE)
 8000d50:	06f8      	lsls	r0, r7, #27
            CLEAR_IN_EP_INTR(epnum, USB_OTG_DIEPINT_ITTXFE);
 8000d52:	bf44      	itt	mi
 8000d54:	2310      	movmi	r3, #16
 8000d56:	f8c8 3008 	strmi.w	r3, [r8, #8]
          if(( epint & USB_OTG_DIEPINT_INEPNE) == USB_OTG_DIEPINT_INEPNE)
 8000d5a:	0679      	lsls	r1, r7, #25
            CLEAR_IN_EP_INTR(epnum, USB_OTG_DIEPINT_INEPNE);
 8000d5c:	bf44      	itt	mi
 8000d5e:	2340      	movmi	r3, #64	; 0x40
 8000d60:	f8c8 3008 	strmi.w	r3, [r8, #8]
          if(( epint & USB_OTG_DIEPINT_EPDISD) == USB_OTG_DIEPINT_EPDISD)
 8000d64:	07ba      	lsls	r2, r7, #30
            CLEAR_IN_EP_INTR(epnum, USB_OTG_DIEPINT_EPDISD);
 8000d66:	bf44      	itt	mi
 8000d68:	2302      	movmi	r3, #2
 8000d6a:	f8c8 3008 	strmi.w	r3, [r8, #8]
          if(( epint & USB_OTG_DIEPINT_TXFE) == USB_OTG_DIEPINT_TXFE)
 8000d6e:	063b      	lsls	r3, r7, #24
 8000d70:	d518      	bpl.n	8000da4 <HAL_PCD_IRQHandler+0x404>
  * @param  epnum  endpoint number   
  * @retval HAL status
  */
static HAL_StatusTypeDef PCD_WriteEmptyTxFifo(PCD_HandleTypeDef *hpcd, uint32_t epnum)
{
  USB_OTG_GlobalTypeDef *USBx = hpcd->Instance;  
 8000d72:	6823      	ldr	r3, [r4, #0]
 8000d74:	9304      	str	r3, [sp, #16]
  int32_t len = 0U;
  uint32_t len32b;
  uint32_t fifoemptymsk = 0U;

  ep = &hpcd->IN_ep[epnum];
  len = ep->xfer_len - ep->xfer_count;
 8000d76:	6cf7      	ldr	r7, [r6, #76]	; 0x4c
 8000d78:	6d33      	ldr	r3, [r6, #80]	; 0x50
 8000d7a:	1aff      	subs	r7, r7, r3
 8000d7c:	6c33      	ldr	r3, [r6, #64]	; 0x40
 8000d7e:	429f      	cmp	r7, r3
 8000d80:	bf28      	it	cs
 8000d82:	461f      	movcs	r7, r3
  }
  
  
  len32b = (len + 3U) / 4U;
 
  while  (((USBx_INEP(epnum)->DTXFSTS & USB_OTG_DTXFSTS_INEPTFSAV) > len32b) &&
 8000d84:	9b04      	ldr	r3, [sp, #16]
 8000d86:	f503 6310 	add.w	r3, r3, #2304	; 0x900
  len32b = (len + 3U) / 4U;
 8000d8a:	f107 0a03 	add.w	sl, r7, #3
  while  (((USBx_INEP(epnum)->DTXFSTS & USB_OTG_DTXFSTS_INEPTFSAV) > len32b) &&
 8000d8e:	eb03 1345 	add.w	r3, r3, r5, lsl #5
  len32b = (len + 3U) / 4U;
 8000d92:	ea4f 0a9a 	mov.w	sl, sl, lsr #2
  while  (((USBx_INEP(epnum)->DTXFSTS & USB_OTG_DTXFSTS_INEPTFSAV) > len32b) &&
 8000d96:	9305      	str	r3, [sp, #20]
 8000d98:	9b05      	ldr	r3, [sp, #20]
 8000d9a:	699b      	ldr	r3, [r3, #24]
 8000d9c:	b29b      	uxth	r3, r3
 8000d9e:	4553      	cmp	r3, sl
 8000da0:	d808      	bhi.n	8000db4 <HAL_PCD_IRQHandler+0x414>
    
    ep->xfer_buff  += len;
    ep->xfer_count += len;
  }
  
  if(len <= 0U)
 8000da2:	b32f      	cbz	r7, 8000df0 <HAL_PCD_IRQHandler+0x450>
        ep_intr >>= 1U;
 8000da4:	9b03      	ldr	r3, [sp, #12]
 8000da6:	085b      	lsrs	r3, r3, #1
        epnum++;
 8000da8:	3501      	adds	r5, #1
        ep_intr >>= 1U;
 8000daa:	9303      	str	r3, [sp, #12]
 8000dac:	361c      	adds	r6, #28
 8000dae:	f108 0820 	add.w	r8, r8, #32
 8000db2:	e631      	b.n	8000a18 <HAL_PCD_IRQHandler+0x78>
          (ep->xfer_count < ep->xfer_len) &&
 8000db4:	6d32      	ldr	r2, [r6, #80]	; 0x50
 8000db6:	6cf3      	ldr	r3, [r6, #76]	; 0x4c
  while  (((USBx_INEP(epnum)->DTXFSTS & USB_OTG_DTXFSTS_INEPTFSAV) > len32b) &&
 8000db8:	4293      	cmp	r3, r2
 8000dba:	d9f2      	bls.n	8000da2 <HAL_PCD_IRQHandler+0x402>
          (ep->xfer_count < ep->xfer_len) &&
 8000dbc:	2b00      	cmp	r3, #0
 8000dbe:	d0f0      	beq.n	8000da2 <HAL_PCD_IRQHandler+0x402>
 8000dc0:	6c37      	ldr	r7, [r6, #64]	; 0x40
    USB_WritePacket(USBx, ep->xfer_buff, epnum, len, hpcd->Init.dma_enable); 
 8000dc2:	9804      	ldr	r0, [sp, #16]
    len = ep->xfer_len - ep->xfer_count;
 8000dc4:	1a9b      	subs	r3, r3, r2
 8000dc6:	429f      	cmp	r7, r3
 8000dc8:	bf28      	it	cs
 8000dca:	461f      	movcs	r7, r3
    USB_WritePacket(USBx, ep->xfer_buff, epnum, len, hpcd->Init.dma_enable); 
 8000dcc:	7c23      	ldrb	r3, [r4, #16]
 8000dce:	9300      	str	r3, [sp, #0]
 8000dd0:	465a      	mov	r2, fp
 8000dd2:	b2bb      	uxth	r3, r7
 8000dd4:	6c71      	ldr	r1, [r6, #68]	; 0x44
 8000dd6:	f001 f98c 	bl	80020f2 <USB_WritePacket>
    ep->xfer_buff  += len;
 8000dda:	6c73      	ldr	r3, [r6, #68]	; 0x44
 8000ddc:	443b      	add	r3, r7
 8000dde:	6473      	str	r3, [r6, #68]	; 0x44
    ep->xfer_count += len;
 8000de0:	6d33      	ldr	r3, [r6, #80]	; 0x50
    len32b = (len + 3U) / 4U;
 8000de2:	f107 0a03 	add.w	sl, r7, #3
    ep->xfer_count += len;
 8000de6:	443b      	add	r3, r7
    len32b = (len + 3U) / 4U;
 8000de8:	ea4f 0a9a 	mov.w	sl, sl, lsr #2
    ep->xfer_count += len;
 8000dec:	6533      	str	r3, [r6, #80]	; 0x50
 8000dee:	e7d3      	b.n	8000d98 <HAL_PCD_IRQHandler+0x3f8>
  {
    fifoemptymsk = 0x1U << epnum;
    USBx_DEVICE->DIEPEMPMSK &= ~fifoemptymsk;
 8000df0:	9b04      	ldr	r3, [sp, #16]
    fifoemptymsk = 0x1U << epnum;
 8000df2:	2201      	movs	r2, #1
    USBx_DEVICE->DIEPEMPMSK &= ~fifoemptymsk;
 8000df4:	f503 6b00 	add.w	fp, r3, #2048	; 0x800
 8000df8:	f8d3 3834 	ldr.w	r3, [r3, #2100]	; 0x834
    fifoemptymsk = 0x1U << epnum;
 8000dfc:	40aa      	lsls	r2, r5
    USBx_DEVICE->DIEPEMPMSK &= ~fifoemptymsk;
 8000dfe:	ea23 0302 	bic.w	r3, r3, r2
 8000e02:	f8cb 3034 	str.w	r3, [fp, #52]	; 0x34
 8000e06:	e7cd      	b.n	8000da4 <HAL_PCD_IRQHandler+0x404>
        HAL_PCD_ResumeCallback(hpcd);
 8000e08:	4620      	mov	r0, r4
 8000e0a:	f001 fffd 	bl	8002e08 <HAL_PCD_ResumeCallback>
 8000e0e:	e61d      	b.n	8000a4c <HAL_PCD_IRQHandler+0xac>
        HAL_PCD_SuspendCallback(hpcd);
 8000e10:	4620      	mov	r0, r4
 8000e12:	f001 ffe1 	bl	8002dd8 <HAL_PCD_SuspendCallback>
 8000e16:	e649      	b.n	8000aac <HAL_PCD_IRQHandler+0x10c>
      for (i = 0U; i < hpcd->Init.dev_endpoints; i++)
 8000e18:	9802      	ldr	r0, [sp, #8]
        USBx_INEP(i)->DIEPINT = 0xFFU;
 8000e1a:	609a      	str	r2, [r3, #8]
      for (i = 0U; i < hpcd->Init.dev_endpoints; i++)
 8000e1c:	3001      	adds	r0, #1
        USBx_OUTEP(i)->DOEPINT = 0xFFU;
 8000e1e:	f8c3 2208 	str.w	r2, [r3, #520]	; 0x208
      for (i = 0U; i < hpcd->Init.dev_endpoints; i++)
 8000e22:	9002      	str	r0, [sp, #8]
 8000e24:	3320      	adds	r3, #32
 8000e26:	e654      	b.n	8000ad2 <HAL_PCD_IRQHandler+0x132>
        USBx_DEVICE->DOEPMSK |= (USB_OTG_DOEPMSK_STUPM | USB_OTG_DOEPMSK_XFRCM | USB_OTG_DOEPMSK_EPDM | USB_OTG_DOEPMSK_OTEPSPRM);
 8000e28:	6973      	ldr	r3, [r6, #20]
 8000e2a:	f043 032b 	orr.w	r3, r3, #43	; 0x2b
 8000e2e:	6173      	str	r3, [r6, #20]
        USBx_DEVICE->DIEPMSK |= (USB_OTG_DIEPMSK_TOM | USB_OTG_DIEPMSK_XFRCM | USB_OTG_DIEPMSK_EPDM);
 8000e30:	6933      	ldr	r3, [r6, #16]
 8000e32:	f043 030b 	orr.w	r3, r3, #11
 8000e36:	6133      	str	r3, [r6, #16]
 8000e38:	e664      	b.n	8000b04 <HAL_PCD_IRQHandler+0x164>
        hpcd->Init.speed            = USB_OTG_SPEED_FULL;
 8000e3a:	2303      	movs	r3, #3
 8000e3c:	60e3      	str	r3, [r4, #12]
        hpcd->Init.ep0_mps          = USB_OTG_FS_MAX_PACKET_SIZE ;  
 8000e3e:	2340      	movs	r3, #64	; 0x40
 8000e40:	6163      	str	r3, [r4, #20]
        hclk = HAL_RCC_GetHCLKFreq();
 8000e42:	f000 fa53 	bl	80012ec <HAL_RCC_GetHCLKFreq>
        if((hclk >= 14200000U)&&(hclk < 15000000U))
 8000e46:	4b35      	ldr	r3, [pc, #212]	; (8000f1c <HAL_PCD_IRQHandler+0x57c>)
 8000e48:	4a35      	ldr	r2, [pc, #212]	; (8000f20 <HAL_PCD_IRQHandler+0x580>)
 8000e4a:	4403      	add	r3, r0
 8000e4c:	4293      	cmp	r3, r2
 8000e4e:	6823      	ldr	r3, [r4, #0]
 8000e50:	d804      	bhi.n	8000e5c <HAL_PCD_IRQHandler+0x4bc>
          hpcd->Instance->GUSBCFG |= (uint32_t)((0xFU << 10U) & USB_OTG_GUSBCFG_TRDT);
 8000e52:	68da      	ldr	r2, [r3, #12]
 8000e54:	f442 5270 	orr.w	r2, r2, #15360	; 0x3c00
          hpcd->Instance->GUSBCFG |= (uint32_t)((0x6U << 10U) & USB_OTG_GUSBCFG_TRDT);
 8000e58:	60da      	str	r2, [r3, #12]
 8000e5a:	e67f      	b.n	8000b5c <HAL_PCD_IRQHandler+0x1bc>
        else if((hclk >= 15000000U)&&(hclk < 16000000U))
 8000e5c:	4a31      	ldr	r2, [pc, #196]	; (8000f24 <HAL_PCD_IRQHandler+0x584>)
 8000e5e:	4932      	ldr	r1, [pc, #200]	; (8000f28 <HAL_PCD_IRQHandler+0x588>)
 8000e60:	4402      	add	r2, r0
 8000e62:	428a      	cmp	r2, r1
 8000e64:	d803      	bhi.n	8000e6e <HAL_PCD_IRQHandler+0x4ce>
          hpcd->Instance->GUSBCFG |= (uint32_t)((0xEU << 10U) & USB_OTG_GUSBCFG_TRDT);
 8000e66:	68da      	ldr	r2, [r3, #12]
 8000e68:	f442 5260 	orr.w	r2, r2, #14336	; 0x3800
 8000e6c:	e7f4      	b.n	8000e58 <HAL_PCD_IRQHandler+0x4b8>
        else if((hclk >= 16000000U)&&(hclk < 17200000U))
 8000e6e:	f5a0 0274 	sub.w	r2, r0, #15990784	; 0xf40000
 8000e72:	492e      	ldr	r1, [pc, #184]	; (8000f2c <HAL_PCD_IRQHandler+0x58c>)
 8000e74:	f5a2 5210 	sub.w	r2, r2, #9216	; 0x2400
 8000e78:	428a      	cmp	r2, r1
 8000e7a:	d803      	bhi.n	8000e84 <HAL_PCD_IRQHandler+0x4e4>
          hpcd->Instance->GUSBCFG |= (uint32_t)((0xDU << 10U) & USB_OTG_GUSBCFG_TRDT);
 8000e7c:	68da      	ldr	r2, [r3, #12]
 8000e7e:	f442 5250 	orr.w	r2, r2, #13312	; 0x3400
 8000e82:	e7e9      	b.n	8000e58 <HAL_PCD_IRQHandler+0x4b8>
        else if((hclk >= 17200000U)&&(hclk < 18500000U))
 8000e84:	f1a0 7283 	sub.w	r2, r0, #17170432	; 0x1060000
 8000e88:	4929      	ldr	r1, [pc, #164]	; (8000f30 <HAL_PCD_IRQHandler+0x590>)
 8000e8a:	f5a2 42e7 	sub.w	r2, r2, #29568	; 0x7380
 8000e8e:	428a      	cmp	r2, r1
 8000e90:	d803      	bhi.n	8000e9a <HAL_PCD_IRQHandler+0x4fa>
          hpcd->Instance->GUSBCFG |= (uint32_t)((0xCU << 10U) & USB_OTG_GUSBCFG_TRDT);
 8000e92:	68da      	ldr	r2, [r3, #12]
 8000e94:	f442 5240 	orr.w	r2, r2, #12288	; 0x3000
 8000e98:	e7de      	b.n	8000e58 <HAL_PCD_IRQHandler+0x4b8>
        else if((hclk >= 18500000U)&&(hclk < 20000000U))
 8000e9a:	4a26      	ldr	r2, [pc, #152]	; (8000f34 <HAL_PCD_IRQHandler+0x594>)
 8000e9c:	4926      	ldr	r1, [pc, #152]	; (8000f38 <HAL_PCD_IRQHandler+0x598>)
 8000e9e:	4402      	add	r2, r0
 8000ea0:	428a      	cmp	r2, r1
 8000ea2:	d803      	bhi.n	8000eac <HAL_PCD_IRQHandler+0x50c>
          hpcd->Instance->GUSBCFG |= (uint32_t)((0xBU << 10U) & USB_OTG_GUSBCFG_TRDT);
 8000ea4:	68da      	ldr	r2, [r3, #12]
 8000ea6:	f442 5230 	orr.w	r2, r2, #11264	; 0x2c00
 8000eaa:	e7d5      	b.n	8000e58 <HAL_PCD_IRQHandler+0x4b8>
        else if((hclk >= 20000000U)&&(hclk < 21800000U))
 8000eac:	4a23      	ldr	r2, [pc, #140]	; (8000f3c <HAL_PCD_IRQHandler+0x59c>)
 8000eae:	4924      	ldr	r1, [pc, #144]	; (8000f40 <HAL_PCD_IRQHandler+0x5a0>)
 8000eb0:	4402      	add	r2, r0
 8000eb2:	428a      	cmp	r2, r1
 8000eb4:	d803      	bhi.n	8000ebe <HAL_PCD_IRQHandler+0x51e>
          hpcd->Instance->GUSBCFG |= (uint32_t)((0xAU << 10U) & USB_OTG_GUSBCFG_TRDT);
 8000eb6:	68da      	ldr	r2, [r3, #12]
 8000eb8:	f442 5220 	orr.w	r2, r2, #10240	; 0x2800
 8000ebc:	e7cc      	b.n	8000e58 <HAL_PCD_IRQHandler+0x4b8>
        else if((hclk >= 21800000U)&&(hclk < 24000000U))
 8000ebe:	4a21      	ldr	r2, [pc, #132]	; (8000f44 <HAL_PCD_IRQHandler+0x5a4>)
 8000ec0:	4921      	ldr	r1, [pc, #132]	; (8000f48 <HAL_PCD_IRQHandler+0x5a8>)
 8000ec2:	4402      	add	r2, r0
 8000ec4:	428a      	cmp	r2, r1
 8000ec6:	d803      	bhi.n	8000ed0 <HAL_PCD_IRQHandler+0x530>
          hpcd->Instance->GUSBCFG |= (uint32_t)((0x9U << 10U) & USB_OTG_GUSBCFG_TRDT);
 8000ec8:	68da      	ldr	r2, [r3, #12]
 8000eca:	f442 5210 	orr.w	r2, r2, #9216	; 0x2400
 8000ece:	e7c3      	b.n	8000e58 <HAL_PCD_IRQHandler+0x4b8>
        else if((hclk >= 24000000U)&&(hclk < 27700000U))
 8000ed0:	f1a0 72b7 	sub.w	r2, r0, #23986176	; 0x16e0000
 8000ed4:	491d      	ldr	r1, [pc, #116]	; (8000f4c <HAL_PCD_IRQHandler+0x5ac>)
 8000ed6:	f5a2 5258 	sub.w	r2, r2, #13824	; 0x3600
 8000eda:	428a      	cmp	r2, r1
 8000edc:	d803      	bhi.n	8000ee6 <HAL_PCD_IRQHandler+0x546>
          hpcd->Instance->GUSBCFG |= (uint32_t)((0x8U << 10U) & USB_OTG_GUSBCFG_TRDT);
 8000ede:	68da      	ldr	r2, [r3, #12]
 8000ee0:	f442 5200 	orr.w	r2, r2, #8192	; 0x2000
 8000ee4:	e7b8      	b.n	8000e58 <HAL_PCD_IRQHandler+0x4b8>
        else if((hclk >= 27700000U)&&(hclk < 32000000U))
 8000ee6:	4a1a      	ldr	r2, [pc, #104]	; (8000f50 <HAL_PCD_IRQHandler+0x5b0>)
 8000ee8:	491a      	ldr	r1, [pc, #104]	; (8000f54 <HAL_PCD_IRQHandler+0x5b4>)
 8000eea:	4402      	add	r2, r0
 8000eec:	428a      	cmp	r2, r1
          hpcd->Instance->GUSBCFG |= (uint32_t)((0x7U << 10U) & USB_OTG_GUSBCFG_TRDT);
 8000eee:	68da      	ldr	r2, [r3, #12]
 8000ef0:	bf94      	ite	ls
 8000ef2:	f442 52e0 	orrls.w	r2, r2, #7168	; 0x1c00
          hpcd->Instance->GUSBCFG |= (uint32_t)((0x6U << 10U) & USB_OTG_GUSBCFG_TRDT);
 8000ef6:	f442 52c0 	orrhi.w	r2, r2, #6144	; 0x1800
 8000efa:	e7ad      	b.n	8000e58 <HAL_PCD_IRQHandler+0x4b8>
      else if (((temp & USB_OTG_GRXSTSP_PKTSTS) >> 17U) ==  STS_SETUP_UPDT)
 8000efc:	2b06      	cmp	r3, #6
 8000efe:	f47f ae61 	bne.w	8000bc4 <HAL_PCD_IRQHandler+0x224>
        USB_ReadPacket(USBx, (uint8_t *)hpcd->Setup, 8U);
 8000f02:	2208      	movs	r2, #8
 8000f04:	f504 716f 	add.w	r1, r4, #956	; 0x3bc
 8000f08:	4648      	mov	r0, r9
        ep->xfer_count += (temp & USB_OTG_GRXSTSP_BCNT) >> 4U;
 8000f0a:	271c      	movs	r7, #28
        USB_ReadPacket(USBx, (uint8_t *)hpcd->Setup, 8U);
 8000f0c:	f001 f905 	bl	800211a <USB_ReadPacket>
        ep->xfer_count += (temp & USB_OTG_GRXSTSP_BCNT) >> 4U;
 8000f10:	fb07 4708 	mla	r7, r7, r8, r4
 8000f14:	f3c6 160a 	ubfx	r6, r6, #4, #11
 8000f18:	e64f      	b.n	8000bba <HAL_PCD_IRQHandler+0x21a>
 8000f1a:	bf00      	nop
 8000f1c:	ff275340 	.word	0xff275340
 8000f20:	000c34ff 	.word	0x000c34ff
 8000f24:	ff1b1e40 	.word	0xff1b1e40
 8000f28:	000f423f 	.word	0x000f423f
 8000f2c:	00124f7f 	.word	0x00124f7f
 8000f30:	0013d61f 	.word	0x0013d61f
 8000f34:	fee5b660 	.word	0xfee5b660
 8000f38:	0016e35f 	.word	0x0016e35f
 8000f3c:	feced300 	.word	0xfeced300
 8000f40:	001b773f 	.word	0x001b773f
 8000f44:	feb35bc0 	.word	0xfeb35bc0
 8000f48:	002191bf 	.word	0x002191bf
 8000f4c:	0038751f 	.word	0x0038751f
 8000f50:	fe5954e0 	.word	0xfe5954e0
 8000f54:	00419cdf 	.word	0x00419cdf

08000f58 <HAL_PCD_SetAddress>:
  __HAL_LOCK(hpcd); 
 8000f58:	f890 33b8 	ldrb.w	r3, [r0, #952]	; 0x3b8
 8000f5c:	2b01      	cmp	r3, #1
{
 8000f5e:	b510      	push	{r4, lr}
 8000f60:	4604      	mov	r4, r0
  __HAL_LOCK(hpcd); 
 8000f62:	d009      	beq.n	8000f78 <HAL_PCD_SetAddress+0x20>
 8000f64:	2301      	movs	r3, #1
 8000f66:	f880 33b8 	strb.w	r3, [r0, #952]	; 0x3b8
  USB_SetDevAddress(hpcd->Instance, address);
 8000f6a:	6800      	ldr	r0, [r0, #0]
 8000f6c:	f001 f91b 	bl	80021a6 <USB_SetDevAddress>
  __HAL_UNLOCK(hpcd);   
 8000f70:	2000      	movs	r0, #0
 8000f72:	f884 03b8 	strb.w	r0, [r4, #952]	; 0x3b8
  return HAL_OK;
 8000f76:	bd10      	pop	{r4, pc}
  __HAL_LOCK(hpcd); 
 8000f78:	2002      	movs	r0, #2
}
 8000f7a:	bd10      	pop	{r4, pc}

08000f7c <HAL_PCD_EP_Open>:
{
 8000f7c:	b570      	push	{r4, r5, r6, lr}
  if ((ep_addr & 0x80) == 0x80)
 8000f7e:	b24e      	sxtb	r6, r1
 8000f80:	2e00      	cmp	r6, #0
{
 8000f82:	4604      	mov	r4, r0
 8000f84:	f04f 051c 	mov.w	r5, #28
 8000f88:	f001 007f 	and.w	r0, r1, #127	; 0x7f
    ep = &hpcd->IN_ep[ep_addr & 0x7F];
 8000f8c:	bfb5      	itete	lt
 8000f8e:	fb05 4100 	mlalt	r1, r5, r0, r4
    ep = &hpcd->OUT_ep[ep_addr & 0x7F];
 8000f92:	fb05 4101 	mlage	r1, r5, r1, r4
    ep = &hpcd->IN_ep[ep_addr & 0x7F];
 8000f96:	3138      	addlt	r1, #56	; 0x38
    ep = &hpcd->OUT_ep[ep_addr & 0x7F];
 8000f98:	f501 71fc 	addge.w	r1, r1, #504	; 0x1f8
  ep->num   = ep_addr & 0x7F;
 8000f9c:	b2c0      	uxtb	r0, r0
  if (ep->is_in)
 8000f9e:	2e00      	cmp	r6, #0
    ep->tx_fifo_num = ep->num;
 8000fa0:	bfb8      	it	lt
 8000fa2:	80c8      	strhlt	r0, [r1, #6]
  if (ep_type == EP_TYPE_BULK )
 8000fa4:	2b02      	cmp	r3, #2
  ep->type = ep_type;
 8000fa6:	70cb      	strb	r3, [r1, #3]
  ep->is_in = (0x80 & ep_addr) != 0;
 8000fa8:	ea4f 75d6 	mov.w	r5, r6, lsr #31
    ep->data_pid_start = 0U;
 8000fac:	bf04      	itt	eq
 8000fae:	2300      	moveq	r3, #0
 8000fb0:	710b      	strbeq	r3, [r1, #4]
  ep->num   = ep_addr & 0x7F;
 8000fb2:	7008      	strb	r0, [r1, #0]
  ep->is_in = (0x80 & ep_addr) != 0;
 8000fb4:	704d      	strb	r5, [r1, #1]
  __HAL_LOCK(hpcd); 
 8000fb6:	f894 33b8 	ldrb.w	r3, [r4, #952]	; 0x3b8
  ep->maxpacket = ep_mps;
 8000fba:	608a      	str	r2, [r1, #8]
  __HAL_LOCK(hpcd); 
 8000fbc:	2b01      	cmp	r3, #1
 8000fbe:	d009      	beq.n	8000fd4 <HAL_PCD_EP_Open+0x58>
 8000fc0:	2301      	movs	r3, #1
 8000fc2:	f884 33b8 	strb.w	r3, [r4, #952]	; 0x3b8
  USB_ActivateEndpoint(hpcd->Instance , ep);
 8000fc6:	6820      	ldr	r0, [r4, #0]
 8000fc8:	f000 fec6 	bl	8001d58 <USB_ActivateEndpoint>
  __HAL_UNLOCK(hpcd);   
 8000fcc:	2000      	movs	r0, #0
 8000fce:	f884 03b8 	strb.w	r0, [r4, #952]	; 0x3b8
  return ret;
 8000fd2:	bd70      	pop	{r4, r5, r6, pc}
  __HAL_LOCK(hpcd); 
 8000fd4:	2002      	movs	r0, #2
}
 8000fd6:	bd70      	pop	{r4, r5, r6, pc}

08000fd8 <HAL_PCD_EP_Close>:
  if ((ep_addr & 0x80) == 0x80)
 8000fd8:	b24b      	sxtb	r3, r1
 8000fda:	2b00      	cmp	r3, #0
{  
 8000fdc:	b510      	push	{r4, lr}
 8000fde:	f04f 021c 	mov.w	r2, #28
 8000fe2:	4604      	mov	r4, r0
 8000fe4:	f001 007f 	and.w	r0, r1, #127	; 0x7f
    ep = &hpcd->IN_ep[ep_addr & 0x7F];
 8000fe8:	bfb5      	itete	lt
 8000fea:	fb02 4100 	mlalt	r1, r2, r0, r4
    ep = &hpcd->OUT_ep[ep_addr & 0x7F];
 8000fee:	fb02 4101 	mlage	r1, r2, r1, r4
    ep = &hpcd->IN_ep[ep_addr & 0x7F];
 8000ff2:	3138      	addlt	r1, #56	; 0x38
    ep = &hpcd->OUT_ep[ep_addr & 0x7F];
 8000ff4:	f501 71fc 	addge.w	r1, r1, #504	; 0x1f8
  ep->is_in = (0x80 & ep_addr) != 0;
 8000ff8:	0fdb      	lsrs	r3, r3, #31
  ep->num   = ep_addr & 0x7F;
 8000ffa:	7008      	strb	r0, [r1, #0]
  ep->is_in = (0x80 & ep_addr) != 0;
 8000ffc:	704b      	strb	r3, [r1, #1]
  __HAL_LOCK(hpcd); 
 8000ffe:	f894 33b8 	ldrb.w	r3, [r4, #952]	; 0x3b8
 8001002:	2b01      	cmp	r3, #1
 8001004:	d009      	beq.n	800101a <HAL_PCD_EP_Close+0x42>
 8001006:	2301      	movs	r3, #1
 8001008:	f884 33b8 	strb.w	r3, [r4, #952]	; 0x3b8
  USB_DeactivateEndpoint(hpcd->Instance , ep);
 800100c:	6820      	ldr	r0, [r4, #0]
 800100e:	f000 fee2 	bl	8001dd6 <USB_DeactivateEndpoint>
  __HAL_UNLOCK(hpcd);   
 8001012:	2000      	movs	r0, #0
 8001014:	f884 03b8 	strb.w	r0, [r4, #952]	; 0x3b8
  return HAL_OK;
 8001018:	bd10      	pop	{r4, pc}
  __HAL_LOCK(hpcd); 
 800101a:	2002      	movs	r0, #2
}
 800101c:	bd10      	pop	{r4, pc}

0800101e <HAL_PCD_EP_Receive>:
{
 800101e:	b538      	push	{r3, r4, r5, lr}
 8001020:	f001 057f 	and.w	r5, r1, #127	; 0x7f
  ep = &hpcd->OUT_ep[ep_addr & 0x7F];
 8001024:	241c      	movs	r4, #28
 8001026:	fb04 0105 	mla	r1, r4, r5, r0
  ep->xfer_buff = pBuf;  
 800102a:	fb04 0405 	mla	r4, r4, r5, r0
  ep = &hpcd->OUT_ep[ep_addr & 0x7F];
 800102e:	f501 71fc 	add.w	r1, r1, #504	; 0x1f8
  ep->xfer_len = len;
 8001032:	f8c4 320c 	str.w	r3, [r4, #524]	; 0x20c
  ep->xfer_count = 0U;
 8001036:	2300      	movs	r3, #0
  ep->xfer_buff = pBuf;  
 8001038:	f8c4 2204 	str.w	r2, [r4, #516]	; 0x204
  ep->xfer_count = 0U;
 800103c:	f8c4 3210 	str.w	r3, [r4, #528]	; 0x210
  ep->is_in = 0U;
 8001040:	f884 31f9 	strb.w	r3, [r4, #505]	; 0x1f9
  ep->num = ep_addr & 0x7F;
 8001044:	f884 51f8 	strb.w	r5, [r4, #504]	; 0x1f8
  if (hpcd->Init.dma_enable == 1U)
 8001048:	6903      	ldr	r3, [r0, #16]
    USB_EP0StartXfer(hpcd->Instance , ep, hpcd->Init.dma_enable);
 800104a:	6800      	ldr	r0, [r0, #0]
  if (hpcd->Init.dma_enable == 1U)
 800104c:	2b01      	cmp	r3, #1
    ep->dma_addr = (uint32_t)pBuf;  
 800104e:	bf08      	it	eq
 8001050:	f8c4 2208 	streq.w	r2, [r4, #520]	; 0x208
 8001054:	b2da      	uxtb	r2, r3
  if ((ep_addr & 0x7F) == 0)
 8001056:	b91d      	cbnz	r5, 8001060 <HAL_PCD_EP_Receive+0x42>
    USB_EP0StartXfer(hpcd->Instance , ep, hpcd->Init.dma_enable);
 8001058:	f000 ffde 	bl	8002018 <USB_EP0StartXfer>
}
 800105c:	2000      	movs	r0, #0
 800105e:	bd38      	pop	{r3, r4, r5, pc}
    USB_EPStartXfer(hpcd->Instance , ep, hpcd->Init.dma_enable);
 8001060:	f000 ff14 	bl	8001e8c <USB_EPStartXfer>
 8001064:	e7fa      	b.n	800105c <HAL_PCD_EP_Receive+0x3e>

08001066 <HAL_PCD_EP_Transmit>:
{
 8001066:	b538      	push	{r3, r4, r5, lr}
 8001068:	f001 057f 	and.w	r5, r1, #127	; 0x7f
  ep = &hpcd->IN_ep[ep_addr & 0x7F];
 800106c:	241c      	movs	r4, #28
 800106e:	fb04 0105 	mla	r1, r4, r5, r0
  ep->xfer_buff = pBuf;  
 8001072:	fb04 0405 	mla	r4, r4, r5, r0
  ep = &hpcd->IN_ep[ep_addr & 0x7F];
 8001076:	3138      	adds	r1, #56	; 0x38
  ep->xfer_len = len;
 8001078:	64e3      	str	r3, [r4, #76]	; 0x4c
  ep->xfer_count = 0U;
 800107a:	2300      	movs	r3, #0
 800107c:	6523      	str	r3, [r4, #80]	; 0x50
  ep->is_in = 1U;
 800107e:	2301      	movs	r3, #1
  ep->xfer_buff = pBuf;  
 8001080:	6462      	str	r2, [r4, #68]	; 0x44
  ep->is_in = 1U;
 8001082:	f884 3039 	strb.w	r3, [r4, #57]	; 0x39
  ep->num = ep_addr & 0x7F;
 8001086:	f884 5038 	strb.w	r5, [r4, #56]	; 0x38
  if (hpcd->Init.dma_enable == 1U)
 800108a:	6903      	ldr	r3, [r0, #16]
    USB_EP0StartXfer(hpcd->Instance , ep, hpcd->Init.dma_enable);
 800108c:	6800      	ldr	r0, [r0, #0]
  if (hpcd->Init.dma_enable == 1U)
 800108e:	2b01      	cmp	r3, #1
    ep->dma_addr = (uint32_t)pBuf;  
 8001090:	bf08      	it	eq
 8001092:	64a2      	streq	r2, [r4, #72]	; 0x48
 8001094:	b2da      	uxtb	r2, r3
  if ((ep_addr & 0x7F) == 0)
 8001096:	b91d      	cbnz	r5, 80010a0 <HAL_PCD_EP_Transmit+0x3a>
    USB_EP0StartXfer(hpcd->Instance , ep, hpcd->Init.dma_enable);
 8001098:	f000 ffbe 	bl	8002018 <USB_EP0StartXfer>
}
 800109c:	2000      	movs	r0, #0
 800109e:	bd38      	pop	{r3, r4, r5, pc}
    USB_EPStartXfer(hpcd->Instance , ep, hpcd->Init.dma_enable);
 80010a0:	f000 fef4 	bl	8001e8c <USB_EPStartXfer>
 80010a4:	e7fa      	b.n	800109c <HAL_PCD_EP_Transmit+0x36>

080010a6 <HAL_PCD_EP_SetStall>:
{
 80010a6:	b538      	push	{r3, r4, r5, lr}
  if ((0x80 & ep_addr) == 0x80)
 80010a8:	b24b      	sxtb	r3, r1
 80010aa:	2b00      	cmp	r3, #0
 80010ac:	f001 057f 	and.w	r5, r1, #127	; 0x7f
 80010b0:	f04f 021c 	mov.w	r2, #28
    ep = &hpcd->IN_ep[ep_addr & 0x7F];
 80010b4:	bfb5      	itete	lt
 80010b6:	fb02 0105 	mlalt	r1, r2, r5, r0
    ep = &hpcd->OUT_ep[ep_addr];
 80010ba:	fb02 0101 	mlage	r1, r2, r1, r0
    ep = &hpcd->IN_ep[ep_addr & 0x7F];
 80010be:	3138      	addlt	r1, #56	; 0x38
    ep = &hpcd->OUT_ep[ep_addr];
 80010c0:	f501 71fc 	addge.w	r1, r1, #504	; 0x1f8
  ep->is_stall = 1U;
 80010c4:	2201      	movs	r2, #1
  ep->is_in = ((ep_addr & 0x80) == 0x80);
 80010c6:	0fdb      	lsrs	r3, r3, #31
  ep->num   = ep_addr & 0x7F;
 80010c8:	b2ed      	uxtb	r5, r5
  ep->is_stall = 1U;
 80010ca:	708a      	strb	r2, [r1, #2]
  ep->num   = ep_addr & 0x7F;
 80010cc:	700d      	strb	r5, [r1, #0]
  ep->is_in = ((ep_addr & 0x80) == 0x80);
 80010ce:	704b      	strb	r3, [r1, #1]
  __HAL_LOCK(hpcd); 
 80010d0:	f890 33b8 	ldrb.w	r3, [r0, #952]	; 0x3b8
 80010d4:	4293      	cmp	r3, r2
{
 80010d6:	4604      	mov	r4, r0
  __HAL_LOCK(hpcd); 
 80010d8:	d00f      	beq.n	80010fa <HAL_PCD_EP_SetStall+0x54>
 80010da:	f880 23b8 	strb.w	r2, [r0, #952]	; 0x3b8
  USB_EPSetStall(hpcd->Instance , ep);
 80010de:	6800      	ldr	r0, [r0, #0]
 80010e0:	f001 f829 	bl	8002136 <USB_EPSetStall>
  if((ep_addr & 0x7F) == 0)
 80010e4:	b92d      	cbnz	r5, 80010f2 <HAL_PCD_EP_SetStall+0x4c>
    USB_EP0_OutStart(hpcd->Instance, hpcd->Init.dma_enable, (uint8_t *)hpcd->Setup);
 80010e6:	f504 726f 	add.w	r2, r4, #956	; 0x3bc
 80010ea:	7c21      	ldrb	r1, [r4, #16]
 80010ec:	6820      	ldr	r0, [r4, #0]
 80010ee:	f001 f8cf 	bl	8002290 <USB_EP0_OutStart>
  __HAL_UNLOCK(hpcd); 
 80010f2:	2000      	movs	r0, #0
 80010f4:	f884 03b8 	strb.w	r0, [r4, #952]	; 0x3b8
  return HAL_OK;
 80010f8:	bd38      	pop	{r3, r4, r5, pc}
  __HAL_LOCK(hpcd); 
 80010fa:	2002      	movs	r0, #2
}
 80010fc:	bd38      	pop	{r3, r4, r5, pc}

080010fe <HAL_PCD_EP_ClrStall>:
{
 80010fe:	b538      	push	{r3, r4, r5, lr}
  if ((0x80 & ep_addr) == 0x80)
 8001100:	b24b      	sxtb	r3, r1
 8001102:	2b00      	cmp	r3, #0
{
 8001104:	4605      	mov	r5, r0
 8001106:	f04f 021c 	mov.w	r2, #28
 800110a:	f001 007f 	and.w	r0, r1, #127	; 0x7f
    ep = &hpcd->IN_ep[ep_addr & 0x7F];
 800110e:	bfb5      	itete	lt
 8001110:	fb02 5100 	mlalt	r1, r2, r0, r5
    ep = &hpcd->OUT_ep[ep_addr];
 8001114:	fb02 5101 	mlage	r1, r2, r1, r5
    ep = &hpcd->IN_ep[ep_addr & 0x7F];
 8001118:	3138      	addlt	r1, #56	; 0x38
    ep = &hpcd->OUT_ep[ep_addr];
 800111a:	f501 71fc 	addge.w	r1, r1, #504	; 0x1f8
  ep->is_in = ((ep_addr & 0x80) == 0x80);
 800111e:	0fdb      	lsrs	r3, r3, #31
  ep->is_stall = 0U;
 8001120:	2400      	movs	r4, #0
 8001122:	708c      	strb	r4, [r1, #2]
  ep->num   = ep_addr & 0x7F;
 8001124:	7008      	strb	r0, [r1, #0]
  ep->is_in = ((ep_addr & 0x80) == 0x80);
 8001126:	704b      	strb	r3, [r1, #1]
  __HAL_LOCK(hpcd); 
 8001128:	f895 33b8 	ldrb.w	r3, [r5, #952]	; 0x3b8
 800112c:	2b01      	cmp	r3, #1
 800112e:	d009      	beq.n	8001144 <HAL_PCD_EP_ClrStall+0x46>
 8001130:	2301      	movs	r3, #1
 8001132:	f885 33b8 	strb.w	r3, [r5, #952]	; 0x3b8
  USB_EPClearStall(hpcd->Instance , ep);
 8001136:	6828      	ldr	r0, [r5, #0]
 8001138:	f001 f81c 	bl	8002174 <USB_EPClearStall>
  __HAL_UNLOCK(hpcd); 
 800113c:	f885 43b8 	strb.w	r4, [r5, #952]	; 0x3b8
  return HAL_OK;
 8001140:	4620      	mov	r0, r4
 8001142:	bd38      	pop	{r3, r4, r5, pc}
  __HAL_LOCK(hpcd); 
 8001144:	2002      	movs	r0, #2
}
 8001146:	bd38      	pop	{r3, r4, r5, pc}

08001148 <HAL_PCDEx_SetTxFiFo>:
         --> Txn should be configured with the minimum space of 16 words
     The FIFO is used optimally when used TxFIFOs are allocated in the top 
         of the FIFO.Ex: use EP1 and EP2 as IN instead of EP1 and EP3 as IN ones.
     When DMA is used 3n * FIFO locations should be reserved for internal DMA registers */
  
  Tx_Offset = hpcd->Instance->GRXFSIZ;
 8001148:	6800      	ldr	r0, [r0, #0]
{
 800114a:	b570      	push	{r4, r5, r6, lr}
  Tx_Offset = hpcd->Instance->GRXFSIZ;
 800114c:	6a43      	ldr	r3, [r0, #36]	; 0x24
  
  if(fifo == 0)
 800114e:	b921      	cbnz	r1, 800115a <HAL_PCDEx_SetTxFiFo+0x12>
  {
    hpcd->Instance->DIEPTXF0_HNPTXFSIZ = (uint32_t)(((uint32_t)size << 16U) | Tx_Offset);
 8001150:	ea43 4302 	orr.w	r3, r3, r2, lsl #16
 8001154:	6283      	str	r3, [r0, #40]	; 0x28
    /* Multiply Tx_Size by 2 to get higher performance */
    hpcd->Instance->DIEPTXF[fifo - 1] = (uint32_t)(((uint32_t)size << 16U) | Tx_Offset);        
  }
  
  return HAL_OK;
}
 8001156:	2000      	movs	r0, #0
 8001158:	bd70      	pop	{r4, r5, r6, pc}
    Tx_Offset += (hpcd->Instance->DIEPTXF0_HNPTXFSIZ) >> 16U;
 800115a:	6a84      	ldr	r4, [r0, #40]	; 0x28
    for (i = 0; i < (fifo - 1); i++)
 800115c:	2500      	movs	r5, #0
    Tx_Offset += (hpcd->Instance->DIEPTXF0_HNPTXFSIZ) >> 16U;
 800115e:	eb03 4314 	add.w	r3, r3, r4, lsr #16
    for (i = 0; i < (fifo - 1); i++)
 8001162:	1e4e      	subs	r6, r1, #1
 8001164:	b2ec      	uxtb	r4, r5
 8001166:	42b4      	cmp	r4, r6
 8001168:	f105 0501 	add.w	r5, r5, #1
 800116c:	db06      	blt.n	800117c <HAL_PCDEx_SetTxFiFo+0x34>
    hpcd->Instance->DIEPTXF[fifo - 1] = (uint32_t)(((uint32_t)size << 16U) | Tx_Offset);        
 800116e:	313f      	adds	r1, #63	; 0x3f
 8001170:	eb00 0081 	add.w	r0, r0, r1, lsl #2
 8001174:	ea43 4302 	orr.w	r3, r3, r2, lsl #16
 8001178:	6043      	str	r3, [r0, #4]
 800117a:	e7ec      	b.n	8001156 <HAL_PCDEx_SetTxFiFo+0xe>
      Tx_Offset += (hpcd->Instance->DIEPTXF[i] >> 16U);
 800117c:	3440      	adds	r4, #64	; 0x40
 800117e:	eb00 0484 	add.w	r4, r0, r4, lsl #2
 8001182:	6864      	ldr	r4, [r4, #4]
 8001184:	eb03 4314 	add.w	r3, r3, r4, lsr #16
 8001188:	e7ec      	b.n	8001164 <HAL_PCDEx_SetTxFiFo+0x1c>

0800118a <HAL_PCDEx_SetRxFiFo>:
  * @param  size Size of Rx fifo
  * @retval HAL status
  */
HAL_StatusTypeDef HAL_PCDEx_SetRxFiFo(PCD_HandleTypeDef *hpcd, uint16_t size)
{
  hpcd->Instance->GRXFSIZ = size;
 800118a:	6803      	ldr	r3, [r0, #0]
  
  return HAL_OK;
}
 800118c:	2000      	movs	r0, #0
  hpcd->Instance->GRXFSIZ = size;
 800118e:	6259      	str	r1, [r3, #36]	; 0x24
}
 8001190:	4770      	bx	lr

08001192 <HAL_PCDEx_ActivateLPM>:
  * @param  hpcd PCD handle
  * @retval HAL status
  */
HAL_StatusTypeDef HAL_PCDEx_ActivateLPM(PCD_HandleTypeDef *hpcd)
{
  USB_OTG_GlobalTypeDef *USBx = hpcd->Instance;  
 8001192:	6802      	ldr	r2, [r0, #0]
{
 8001194:	4603      	mov	r3, r0
  
  hpcd->lpm_active = ENABLE;
 8001196:	2101      	movs	r1, #1
 8001198:	f8c0 13f4 	str.w	r1, [r0, #1012]	; 0x3f4
  hpcd->LPM_State = LPM_L0;
 800119c:	2000      	movs	r0, #0
 800119e:	f883 03ec 	strb.w	r0, [r3, #1004]	; 0x3ec
  USBx->GINTMSK |= USB_OTG_GINTMSK_LPMINTM;
 80011a2:	6993      	ldr	r3, [r2, #24]
 80011a4:	f043 6300 	orr.w	r3, r3, #134217728	; 0x8000000
 80011a8:	6193      	str	r3, [r2, #24]
  USBx->GLPMCFG |= (USB_OTG_GLPMCFG_LPMEN | USB_OTG_GLPMCFG_LPMACK | USB_OTG_GLPMCFG_ENBESL);
 80011aa:	6d53      	ldr	r3, [r2, #84]	; 0x54
 80011ac:	f043 5380 	orr.w	r3, r3, #268435456	; 0x10000000
 80011b0:	f043 0303 	orr.w	r3, r3, #3
 80011b4:	6553      	str	r3, [r2, #84]	; 0x54
  
  return HAL_OK;  
}
 80011b6:	4770      	bx	lr

080011b8 <HAL_RCC_ClockConfig>:
  *         HPRE[3:0] bits to ensure that HCLK not exceed the maximum allowed frequency
  *         (for more details refer to section above "Initialization/de-initialization functions")
  * @retval None
  */
HAL_StatusTypeDef HAL_RCC_ClockConfig(RCC_ClkInitTypeDef  *RCC_ClkInitStruct, uint32_t FLatency)
{
 80011b8:	e92d 41f0 	stmdb	sp!, {r4, r5, r6, r7, r8, lr}
 80011bc:	460d      	mov	r5, r1
  uint32_t tickstart;

  /* Check Null pointer */
  if(RCC_ClkInitStruct == NULL)
 80011be:	4604      	mov	r4, r0
 80011c0:	b910      	cbnz	r0, 80011c8 <HAL_RCC_ClockConfig+0x10>
  {
    return HAL_ERROR;
 80011c2:	2001      	movs	r0, #1
 80011c4:	e8bd 81f0 	ldmia.w	sp!, {r4, r5, r6, r7, r8, pc}
  /* To correctly read data from FLASH memory, the number of wait states (LATENCY)
    must be correctly programmed according to the frequency of the CPU clock
    (HCLK) and the supply voltage of the device. */

  /* Increasing the number of wait states because of higher CPU frequency */
  if(FLatency > __HAL_FLASH_GET_LATENCY())
 80011c8:	4b44      	ldr	r3, [pc, #272]	; (80012dc <HAL_RCC_ClockConfig+0x124>)
 80011ca:	681a      	ldr	r2, [r3, #0]
 80011cc:	f002 020f 	and.w	r2, r2, #15
 80011d0:	428a      	cmp	r2, r1
 80011d2:	d328      	bcc.n	8001226 <HAL_RCC_ClockConfig+0x6e>
      return HAL_ERROR;
    }
  }

  /*-------------------------- HCLK Configuration --------------------------*/
  if(((RCC_ClkInitStruct->ClockType) & RCC_CLOCKTYPE_HCLK) == RCC_CLOCKTYPE_HCLK)
 80011d4:	6821      	ldr	r1, [r4, #0]
 80011d6:	078f      	lsls	r7, r1, #30
 80011d8:	d42d      	bmi.n	8001236 <HAL_RCC_ClockConfig+0x7e>
    assert_param(IS_RCC_HCLK(RCC_ClkInitStruct->AHBCLKDivider));
    MODIFY_REG(RCC->CFGR, RCC_CFGR_HPRE, RCC_ClkInitStruct->AHBCLKDivider);
  }

  /*------------------------- SYSCLK Configuration ---------------------------*/
  if(((RCC_ClkInitStruct->ClockType) & RCC_CLOCKTYPE_SYSCLK) == RCC_CLOCKTYPE_SYSCLK)
 80011da:	07c8      	lsls	r0, r1, #31
 80011dc:	d440      	bmi.n	8001260 <HAL_RCC_ClockConfig+0xa8>
      }
    }
  }

  /* Decreasing the number of wait states because of lower CPU frequency */
  if(FLatency < __HAL_FLASH_GET_LATENCY())
 80011de:	4b3f      	ldr	r3, [pc, #252]	; (80012dc <HAL_RCC_ClockConfig+0x124>)
 80011e0:	681a      	ldr	r2, [r3, #0]
 80011e2:	f002 020f 	and.w	r2, r2, #15
 80011e6:	4295      	cmp	r5, r2
 80011e8:	d366      	bcc.n	80012b8 <HAL_RCC_ClockConfig+0x100>
      return HAL_ERROR;
    }
  }

  /*-------------------------- PCLK1 Configuration ---------------------------*/
  if(((RCC_ClkInitStruct->ClockType) & RCC_CLOCKTYPE_PCLK1) == RCC_CLOCKTYPE_PCLK1)
 80011ea:	6822      	ldr	r2, [r4, #0]
 80011ec:	0751      	lsls	r1, r2, #29
 80011ee:	d46c      	bmi.n	80012ca <HAL_RCC_ClockConfig+0x112>
    assert_param(IS_RCC_PCLK(RCC_ClkInitStruct->APB1CLKDivider));
    MODIFY_REG(RCC->CFGR, RCC_CFGR_PPRE1, RCC_ClkInitStruct->APB1CLKDivider);
  }

  /*-------------------------- PCLK2 Configuration ---------------------------*/
  if(((RCC_ClkInitStruct->ClockType) & RCC_CLOCKTYPE_PCLK2) == RCC_CLOCKTYPE_PCLK2)
 80011f0:	0713      	lsls	r3, r2, #28
 80011f2:	d507      	bpl.n	8001204 <HAL_RCC_ClockConfig+0x4c>
  {
    assert_param(IS_RCC_PCLK(RCC_ClkInitStruct->APB2CLKDivider));
    MODIFY_REG(RCC->CFGR, RCC_CFGR_PPRE2, ((RCC_ClkInitStruct->APB2CLKDivider) << 3U));
 80011f4:	4a3a      	ldr	r2, [pc, #232]	; (80012e0 <HAL_RCC_ClockConfig+0x128>)
 80011f6:	6921      	ldr	r1, [r4, #16]
 80011f8:	6893      	ldr	r3, [r2, #8]
 80011fa:	f423 4360 	bic.w	r3, r3, #57344	; 0xe000
 80011fe:	ea43 03c1 	orr.w	r3, r3, r1, lsl #3
 8001202:	6093      	str	r3, [r2, #8]
  }

  /* Update the SystemCoreClock global variable */
  SystemCoreClock = HAL_RCC_GetSysClockFreq() >> AHBPrescTable[(RCC->CFGR & RCC_CFGR_HPRE)>> RCC_CFGR_HPRE_Pos];
 8001204:	f000 fa80 	bl	8001708 <HAL_RCC_GetSysClockFreq>
 8001208:	4b35      	ldr	r3, [pc, #212]	; (80012e0 <HAL_RCC_ClockConfig+0x128>)
 800120a:	4a36      	ldr	r2, [pc, #216]	; (80012e4 <HAL_RCC_ClockConfig+0x12c>)
 800120c:	689b      	ldr	r3, [r3, #8]
 800120e:	f3c3 1303 	ubfx	r3, r3, #4, #4
 8001212:	5cd3      	ldrb	r3, [r2, r3]
 8001214:	40d8      	lsrs	r0, r3
 8001216:	4b34      	ldr	r3, [pc, #208]	; (80012e8 <HAL_RCC_ClockConfig+0x130>)
 8001218:	6018      	str	r0, [r3, #0]

  /* Configure the source of time base considering new system clocks settings */
  HAL_InitTick (TICK_INT_PRIORITY);
 800121a:	2000      	movs	r0, #0
 800121c:	f7ff f97a 	bl	8000514 <HAL_InitTick>

  return HAL_OK;
 8001220:	2000      	movs	r0, #0
 8001222:	e8bd 81f0 	ldmia.w	sp!, {r4, r5, r6, r7, r8, pc}
    __HAL_FLASH_SET_LATENCY(FLatency);
 8001226:	b2ca      	uxtb	r2, r1
 8001228:	701a      	strb	r2, [r3, #0]
    if(__HAL_FLASH_GET_LATENCY() != FLatency)
 800122a:	681b      	ldr	r3, [r3, #0]
 800122c:	f003 030f 	and.w	r3, r3, #15
 8001230:	4299      	cmp	r1, r3
 8001232:	d1c6      	bne.n	80011c2 <HAL_RCC_ClockConfig+0xa>
 8001234:	e7ce      	b.n	80011d4 <HAL_RCC_ClockConfig+0x1c>
 8001236:	4b2a      	ldr	r3, [pc, #168]	; (80012e0 <HAL_RCC_ClockConfig+0x128>)
    if(((RCC_ClkInitStruct->ClockType) & RCC_CLOCKTYPE_PCLK1) == RCC_CLOCKTYPE_PCLK1)
 8001238:	f011 0f04 	tst.w	r1, #4
      MODIFY_REG(RCC->CFGR, RCC_CFGR_PPRE1, RCC_HCLK_DIV16);
 800123c:	bf1e      	ittt	ne
 800123e:	689a      	ldrne	r2, [r3, #8]
 8001240:	f442 52e0 	orrne.w	r2, r2, #7168	; 0x1c00
 8001244:	609a      	strne	r2, [r3, #8]
    if(((RCC_ClkInitStruct->ClockType) & RCC_CLOCKTYPE_PCLK2) == RCC_CLOCKTYPE_PCLK2)
 8001246:	070e      	lsls	r6, r1, #28
      MODIFY_REG(RCC->CFGR, RCC_CFGR_PPRE2, (RCC_HCLK_DIV16 << 3));
 8001248:	bf42      	ittt	mi
 800124a:	689a      	ldrmi	r2, [r3, #8]
 800124c:	f442 4260 	orrmi.w	r2, r2, #57344	; 0xe000
 8001250:	609a      	strmi	r2, [r3, #8]
    MODIFY_REG(RCC->CFGR, RCC_CFGR_HPRE, RCC_ClkInitStruct->AHBCLKDivider);
 8001252:	689a      	ldr	r2, [r3, #8]
 8001254:	68a0      	ldr	r0, [r4, #8]
 8001256:	f022 02f0 	bic.w	r2, r2, #240	; 0xf0
 800125a:	4302      	orrs	r2, r0
 800125c:	609a      	str	r2, [r3, #8]
 800125e:	e7bc      	b.n	80011da <HAL_RCC_ClockConfig+0x22>
    if(RCC_ClkInitStruct->SYSCLKSource == RCC_SYSCLKSOURCE_HSE)
 8001260:	6862      	ldr	r2, [r4, #4]
 8001262:	4b1f      	ldr	r3, [pc, #124]	; (80012e0 <HAL_RCC_ClockConfig+0x128>)
 8001264:	2a01      	cmp	r2, #1
 8001266:	d11d      	bne.n	80012a4 <HAL_RCC_ClockConfig+0xec>
      if(__HAL_RCC_GET_FLAG(RCC_FLAG_HSERDY) == RESET)
 8001268:	681b      	ldr	r3, [r3, #0]
 800126a:	f413 3f00 	tst.w	r3, #131072	; 0x20000
      if(__HAL_RCC_GET_FLAG(RCC_FLAG_HSIRDY) == RESET)
 800126e:	d0a8      	beq.n	80011c2 <HAL_RCC_ClockConfig+0xa>
    __HAL_RCC_SYSCLK_CONFIG(RCC_ClkInitStruct->SYSCLKSource);
 8001270:	4e1b      	ldr	r6, [pc, #108]	; (80012e0 <HAL_RCC_ClockConfig+0x128>)
 8001272:	68b3      	ldr	r3, [r6, #8]
 8001274:	f023 0303 	bic.w	r3, r3, #3
 8001278:	4313      	orrs	r3, r2
 800127a:	60b3      	str	r3, [r6, #8]
    tickstart = HAL_GetTick();
 800127c:	f7ff f994 	bl	80005a8 <HAL_GetTick>
      if ((HAL_GetTick() - tickstart) > CLOCKSWITCH_TIMEOUT_VALUE)
 8001280:	f241 3888 	movw	r8, #5000	; 0x1388
    tickstart = HAL_GetTick();
 8001284:	4607      	mov	r7, r0
    while (__HAL_RCC_GET_SYSCLK_SOURCE() != (RCC_ClkInitStruct->SYSCLKSource << RCC_CFGR_SWS_Pos))
 8001286:	68b3      	ldr	r3, [r6, #8]
 8001288:	6862      	ldr	r2, [r4, #4]
 800128a:	f003 030c 	and.w	r3, r3, #12
 800128e:	ebb3 0f82 	cmp.w	r3, r2, lsl #2
 8001292:	d0a4      	beq.n	80011de <HAL_RCC_ClockConfig+0x26>
      if ((HAL_GetTick() - tickstart) > CLOCKSWITCH_TIMEOUT_VALUE)
 8001294:	f7ff f988 	bl	80005a8 <HAL_GetTick>
 8001298:	1bc0      	subs	r0, r0, r7
 800129a:	4540      	cmp	r0, r8
 800129c:	d9f3      	bls.n	8001286 <HAL_RCC_ClockConfig+0xce>
        return HAL_TIMEOUT;
 800129e:	2003      	movs	r0, #3
}
 80012a0:	e8bd 81f0 	ldmia.w	sp!, {r4, r5, r6, r7, r8, pc}
    else if((RCC_ClkInitStruct->SYSCLKSource == RCC_SYSCLKSOURCE_PLLCLK)   ||
 80012a4:	1e91      	subs	r1, r2, #2
 80012a6:	2901      	cmp	r1, #1
      if(__HAL_RCC_GET_FLAG(RCC_FLAG_PLLRDY) == RESET)
 80012a8:	681b      	ldr	r3, [r3, #0]
    else if((RCC_ClkInitStruct->SYSCLKSource == RCC_SYSCLKSOURCE_PLLCLK)   ||
 80012aa:	d802      	bhi.n	80012b2 <HAL_RCC_ClockConfig+0xfa>
      if(__HAL_RCC_GET_FLAG(RCC_FLAG_PLLRDY) == RESET)
 80012ac:	f013 7f00 	tst.w	r3, #33554432	; 0x2000000
 80012b0:	e7dd      	b.n	800126e <HAL_RCC_ClockConfig+0xb6>
      if(__HAL_RCC_GET_FLAG(RCC_FLAG_HSIRDY) == RESET)
 80012b2:	f013 0f02 	tst.w	r3, #2
 80012b6:	e7da      	b.n	800126e <HAL_RCC_ClockConfig+0xb6>
    __HAL_FLASH_SET_LATENCY(FLatency);
 80012b8:	b2ea      	uxtb	r2, r5
 80012ba:	701a      	strb	r2, [r3, #0]
    if(__HAL_FLASH_GET_LATENCY() != FLatency)
 80012bc:	681b      	ldr	r3, [r3, #0]
 80012be:	f003 030f 	and.w	r3, r3, #15
 80012c2:	429d      	cmp	r5, r3
 80012c4:	f47f af7d 	bne.w	80011c2 <HAL_RCC_ClockConfig+0xa>
 80012c8:	e78f      	b.n	80011ea <HAL_RCC_ClockConfig+0x32>
    MODIFY_REG(RCC->CFGR, RCC_CFGR_PPRE1, RCC_ClkInitStruct->APB1CLKDivider);
 80012ca:	4905      	ldr	r1, [pc, #20]	; (80012e0 <HAL_RCC_ClockConfig+0x128>)
 80012cc:	68e0      	ldr	r0, [r4, #12]
 80012ce:	688b      	ldr	r3, [r1, #8]
 80012d0:	f423 53e0 	bic.w	r3, r3, #7168	; 0x1c00
 80012d4:	4303      	orrs	r3, r0
 80012d6:	608b      	str	r3, [r1, #8]
 80012d8:	e78a      	b.n	80011f0 <HAL_RCC_ClockConfig+0x38>
 80012da:	bf00      	nop
 80012dc:	40023c00 	.word	0x40023c00
 80012e0:	40023800 	.word	0x40023800
 80012e4:	08003324 	.word	0x08003324
 80012e8:	20000138 	.word	0x20000138

080012ec <HAL_RCC_GetHCLKFreq>:
  * @retval HCLK frequency
  */
uint32_t HAL_RCC_GetHCLKFreq(void)
{
  return SystemCoreClock;
}
 80012ec:	4b01      	ldr	r3, [pc, #4]	; (80012f4 <HAL_RCC_GetHCLKFreq+0x8>)
 80012ee:	6818      	ldr	r0, [r3, #0]
 80012f0:	4770      	bx	lr
 80012f2:	bf00      	nop
 80012f4:	20000138 	.word	0x20000138

080012f8 <HAL_RCCEx_PeriphCLKConfig>:

  /* Check the peripheral clock selection parameters */
  assert_param(IS_RCC_PERIPHCLOCK(PeriphClkInit->PeriphClockSelection));

  /*------------------------ I2S APB1 configuration --------------------------*/
  if(((PeriphClkInit->PeriphClockSelection) & RCC_PERIPHCLK_I2S_APB1) == (RCC_PERIPHCLK_I2S_APB1))
 80012f8:	6803      	ldr	r3, [r0, #0]
{
 80012fa:	e92d 43f7 	stmdb	sp!, {r0, r1, r2, r4, r5, r6, r7, r8, r9, lr}
  if(((PeriphClkInit->PeriphClockSelection) & RCC_PERIPHCLK_I2S_APB1) == (RCC_PERIPHCLK_I2S_APB1))
 80012fe:	f013 0601 	ands.w	r6, r3, #1
{
 8001302:	4604      	mov	r4, r0
  if(((PeriphClkInit->PeriphClockSelection) & RCC_PERIPHCLK_I2S_APB1) == (RCC_PERIPHCLK_I2S_APB1))
 8001304:	d00b      	beq.n	800131e <HAL_RCCEx_PeriphCLKConfig+0x26>
  {
    /* Check the parameters */
    assert_param(IS_RCC_I2SAPB1CLKSOURCE(PeriphClkInit->I2sApb1ClockSelection));

    /* Configure I2S Clock source */
    __HAL_RCC_I2S_APB1_CONFIG(PeriphClkInit->I2sApb1ClockSelection);
 8001306:	49aa      	ldr	r1, [pc, #680]	; (80015b0 <HAL_RCCEx_PeriphCLKConfig+0x2b8>)
 8001308:	6b86      	ldr	r6, [r0, #56]	; 0x38
 800130a:	f8d1 208c 	ldr.w	r2, [r1, #140]	; 0x8c
 800130e:	f022 62c0 	bic.w	r2, r2, #100663296	; 0x6000000
 8001312:	4332      	orrs	r2, r6
    /* Enable the PLLI2S when it's used as clock source for I2S */
    if(PeriphClkInit->I2sApb1ClockSelection == RCC_I2SAPB1CLKSOURCE_PLLI2S)
 8001314:	fab6 f686 	clz	r6, r6
    __HAL_RCC_I2S_APB1_CONFIG(PeriphClkInit->I2sApb1ClockSelection);
 8001318:	f8c1 208c 	str.w	r2, [r1, #140]	; 0x8c
    if(PeriphClkInit->I2sApb1ClockSelection == RCC_I2SAPB1CLKSOURCE_PLLI2S)
 800131c:	0976      	lsrs	r6, r6, #5
    }
  }
  /*--------------------------------------------------------------------------*/

  /*---------------------------- I2S APB2 configuration ----------------------*/
  if(((PeriphClkInit->PeriphClockSelection) & RCC_PERIPHCLK_I2S_APB2) == (RCC_PERIPHCLK_I2S_APB2))
 800131e:	079d      	lsls	r5, r3, #30
 8001320:	d50b      	bpl.n	800133a <HAL_RCCEx_PeriphCLKConfig+0x42>
  {
    /* Check the parameters */
    assert_param(IS_RCC_I2SAPB2CLKSOURCE(PeriphClkInit->I2sApb2ClockSelection));

    /* Configure I2S Clock source */
    __HAL_RCC_I2S_APB2_CONFIG(PeriphClkInit->I2sApb2ClockSelection);
 8001322:	48a3      	ldr	r0, [pc, #652]	; (80015b0 <HAL_RCCEx_PeriphCLKConfig+0x2b8>)
 8001324:	6be1      	ldr	r1, [r4, #60]	; 0x3c
 8001326:	f8d0 208c 	ldr.w	r2, [r0, #140]	; 0x8c
 800132a:	f022 52c0 	bic.w	r2, r2, #402653184	; 0x18000000
 800132e:	430a      	orrs	r2, r1
    /* Enable the PLLI2S when it's used as clock source for I2S */
    if(PeriphClkInit->I2sApb2ClockSelection == RCC_I2SAPB2CLKSOURCE_PLLI2S)
    {
      plli2sused = 1U;
 8001330:	2900      	cmp	r1, #0
    __HAL_RCC_I2S_APB2_CONFIG(PeriphClkInit->I2sApb2ClockSelection);
 8001332:	f8c0 208c 	str.w	r2, [r0, #140]	; 0x8c
      plli2sused = 1U;
 8001336:	bf08      	it	eq
 8001338:	2601      	moveq	r6, #1
    }
  }
  /*--------------------------------------------------------------------------*/

  /*--------------------------- SAI1 configuration ---------------------------*/
  if(((PeriphClkInit->PeriphClockSelection) & RCC_PERIPHCLK_SAI1) == (RCC_PERIPHCLK_SAI1))
 800133a:	f013 0504 	ands.w	r5, r3, #4
 800133e:	d012      	beq.n	8001366 <HAL_RCCEx_PeriphCLKConfig+0x6e>
  {
    /* Check the parameters */
    assert_param(IS_RCC_SAI1CLKSOURCE(PeriphClkInit->Sai1ClockSelection));

    /* Configure SAI1 Clock source */
    __HAL_RCC_SAI1_CONFIG(PeriphClkInit->Sai1ClockSelection);
 8001340:	499b      	ldr	r1, [pc, #620]	; (80015b0 <HAL_RCCEx_PeriphCLKConfig+0x2b8>)
 8001342:	6b25      	ldr	r5, [r4, #48]	; 0x30
 8001344:	f8d1 208c 	ldr.w	r2, [r1, #140]	; 0x8c
    /* Enable the PLLI2S when it's used as clock source for SAI */
    if(PeriphClkInit->Sai1ClockSelection == RCC_SAI1CLKSOURCE_PLLI2S)
 8001348:	f5b5 1f80 	cmp.w	r5, #1048576	; 0x100000
    __HAL_RCC_SAI1_CONFIG(PeriphClkInit->Sai1ClockSelection);
 800134c:	f422 1240 	bic.w	r2, r2, #3145728	; 0x300000
 8001350:	ea42 0205 	orr.w	r2, r2, r5
    {
      plli2sused = 1U;
    }
    /* Enable the PLLSAI when it's used as clock source for SAI */
    if(PeriphClkInit->Sai1ClockSelection == RCC_SAI1CLKSOURCE_PLLSAI)
 8001354:	bf18      	it	ne
 8001356:	fab5 f585 	clzne	r5, r5
    __HAL_RCC_SAI1_CONFIG(PeriphClkInit->Sai1ClockSelection);
 800135a:	f8c1 208c 	str.w	r2, [r1, #140]	; 0x8c
    if(PeriphClkInit->Sai1ClockSelection == RCC_SAI1CLKSOURCE_PLLSAI)
 800135e:	bf12      	itee	ne
 8001360:	096d      	lsrne	r5, r5, #5
  uint32_t pllsaiused = 0U;
 8001362:	2500      	moveq	r5, #0
      plli2sused = 1U;
 8001364:	2601      	moveq	r6, #1
    }
  }
  /*--------------------------------------------------------------------------*/

  /*-------------------------- SAI2 configuration ----------------------------*/
  if(((PeriphClkInit->PeriphClockSelection) & RCC_PERIPHCLK_SAI2) == (RCC_PERIPHCLK_SAI2))
 8001366:	0718      	lsls	r0, r3, #28
 8001368:	d50f      	bpl.n	800138a <HAL_RCCEx_PeriphCLKConfig+0x92>
  {
    /* Check the parameters */
    assert_param(IS_RCC_SAI2CLKSOURCE(PeriphClkInit->Sai2ClockSelection));

    /* Configure SAI2 Clock source */
    __HAL_RCC_SAI2_CONFIG(PeriphClkInit->Sai2ClockSelection);
 800136a:	4891      	ldr	r0, [pc, #580]	; (80015b0 <HAL_RCCEx_PeriphCLKConfig+0x2b8>)
 800136c:	6b61      	ldr	r1, [r4, #52]	; 0x34
 800136e:	f8d0 208c 	ldr.w	r2, [r0, #140]	; 0x8c
 8001372:	f422 0240 	bic.w	r2, r2, #12582912	; 0xc00000
 8001376:	430a      	orrs	r2, r1

    /* Enable the PLLI2S when it's used as clock source for SAI */
    if(PeriphClkInit->Sai2ClockSelection == RCC_SAI2CLKSOURCE_PLLI2S)
 8001378:	f5b1 0f80 	cmp.w	r1, #4194304	; 0x400000
    __HAL_RCC_SAI2_CONFIG(PeriphClkInit->Sai2ClockSelection);
 800137c:	f8c0 208c 	str.w	r2, [r0, #140]	; 0x8c
    if(PeriphClkInit->Sai2ClockSelection == RCC_SAI2CLKSOURCE_PLLI2S)
 8001380:	f000 8109 	beq.w	8001596 <HAL_RCCEx_PeriphCLKConfig+0x29e>
      plli2sused = 1U;
    }
    /* Enable the PLLSAI when it's used as clock source for SAI */
    if(PeriphClkInit->Sai2ClockSelection == RCC_SAI2CLKSOURCE_PLLSAI)
    {
      pllsaiused = 1U;
 8001384:	2900      	cmp	r1, #0
 8001386:	bf08      	it	eq
 8001388:	2501      	moveq	r5, #1
    }
  }
  /*--------------------------------------------------------------------------*/

  /*----------------------------- RTC configuration --------------------------*/
  if(((PeriphClkInit->PeriphClockSelection) & RCC_PERIPHCLK_RTC) == (RCC_PERIPHCLK_RTC))
 800138a:	0699      	lsls	r1, r3, #26
 800138c:	d533      	bpl.n	80013f6 <HAL_RCCEx_PeriphCLKConfig+0xfe>
  {
    /* Check for RTC Parameters used to output RTCCLK */
    assert_param(IS_RCC_RTCCLKSOURCE(PeriphClkInit->RTCClockSelection));

    /* Enable Power Clock*/
    __HAL_RCC_PWR_CLK_ENABLE();
 800138e:	2300      	movs	r3, #0
 8001390:	9301      	str	r3, [sp, #4]
 8001392:	4b87      	ldr	r3, [pc, #540]	; (80015b0 <HAL_RCCEx_PeriphCLKConfig+0x2b8>)

    /* Enable write access to Backup domain */
    PWR->CR |= PWR_CR_DBP;
 8001394:	4f87      	ldr	r7, [pc, #540]	; (80015b4 <HAL_RCCEx_PeriphCLKConfig+0x2bc>)
    __HAL_RCC_PWR_CLK_ENABLE();
 8001396:	6c1a      	ldr	r2, [r3, #64]	; 0x40
 8001398:	f042 5280 	orr.w	r2, r2, #268435456	; 0x10000000
 800139c:	641a      	str	r2, [r3, #64]	; 0x40
 800139e:	6c1b      	ldr	r3, [r3, #64]	; 0x40
 80013a0:	f003 5380 	and.w	r3, r3, #268435456	; 0x10000000
 80013a4:	9301      	str	r3, [sp, #4]
 80013a6:	9b01      	ldr	r3, [sp, #4]
    PWR->CR |= PWR_CR_DBP;
 80013a8:	683b      	ldr	r3, [r7, #0]
 80013aa:	f443 7380 	orr.w	r3, r3, #256	; 0x100
 80013ae:	603b      	str	r3, [r7, #0]

    /* Get tick */
    tickstart = HAL_GetTick();
 80013b0:	f7ff f8fa 	bl	80005a8 <HAL_GetTick>
 80013b4:	4680      	mov	r8, r0

    while((PWR->CR & PWR_CR_DBP) == RESET)
 80013b6:	683b      	ldr	r3, [r7, #0]
 80013b8:	05da      	lsls	r2, r3, #23
 80013ba:	f140 80ee 	bpl.w	800159a <HAL_RCCEx_PeriphCLKConfig+0x2a2>
      {
        return HAL_TIMEOUT;
      }
    }
    /* Reset the Backup domain only if the RTC Clock source selection is modified from reset value */
    tmpreg1 = (RCC->BDCR & RCC_BDCR_RTCSEL);
 80013be:	4f7c      	ldr	r7, [pc, #496]	; (80015b0 <HAL_RCCEx_PeriphCLKConfig+0x2b8>)
 80013c0:	6f3b      	ldr	r3, [r7, #112]	; 0x70
    if((tmpreg1 != 0x00000000U) && ((tmpreg1) != (PeriphClkInit->RTCClockSelection & RCC_BDCR_RTCSEL)))
 80013c2:	f413 7340 	ands.w	r3, r3, #768	; 0x300
 80013c6:	f040 80fb 	bne.w	80015c0 <HAL_RCCEx_PeriphCLKConfig+0x2c8>
            return HAL_TIMEOUT;
          }
        }
      }
    }
    __HAL_RCC_RTC_CONFIG(PeriphClkInit->RTCClockSelection);
 80013ca:	6c23      	ldr	r3, [r4, #64]	; 0x40
 80013cc:	f403 7240 	and.w	r2, r3, #768	; 0x300
 80013d0:	f5b2 7f40 	cmp.w	r2, #768	; 0x300
 80013d4:	4a76      	ldr	r2, [pc, #472]	; (80015b0 <HAL_RCCEx_PeriphCLKConfig+0x2b8>)
 80013d6:	f040 8116 	bne.w	8001606 <HAL_RCCEx_PeriphCLKConfig+0x30e>
 80013da:	6891      	ldr	r1, [r2, #8]
 80013dc:	f023 4070 	bic.w	r0, r3, #4026531840	; 0xf0000000
 80013e0:	f421 11f8 	bic.w	r1, r1, #2031616	; 0x1f0000
 80013e4:	f420 7040 	bic.w	r0, r0, #768	; 0x300
 80013e8:	4301      	orrs	r1, r0
 80013ea:	6091      	str	r1, [r2, #8]
 80013ec:	6f11      	ldr	r1, [r2, #112]	; 0x70
 80013ee:	f3c3 030b 	ubfx	r3, r3, #0, #12
 80013f2:	430b      	orrs	r3, r1
 80013f4:	6713      	str	r3, [r2, #112]	; 0x70
  }
  /*--------------------------------------------------------------------------*/

  /*---------------------------- TIM configuration ---------------------------*/
  if(((PeriphClkInit->PeriphClockSelection) & RCC_PERIPHCLK_TIM) == (RCC_PERIPHCLK_TIM))
 80013f6:	6823      	ldr	r3, [r4, #0]
 80013f8:	06d9      	lsls	r1, r3, #27
  {
    /* Configure Timer Prescaler */
    __HAL_RCC_TIMCLKPRESCALER(PeriphClkInit->TIMPresSelection);
 80013fa:	bf42      	ittt	mi
 80013fc:	4b6e      	ldrmi	r3, [pc, #440]	; (80015b8 <HAL_RCCEx_PeriphCLKConfig+0x2c0>)
 80013fe:	f894 2058 	ldrbmi.w	r2, [r4, #88]	; 0x58
 8001402:	601a      	strmi	r2, [r3, #0]
  }
  /*--------------------------------------------------------------------------*/

  /*---------------------------- FMPI2C1 Configuration -----------------------*/
  if(((PeriphClkInit->PeriphClockSelection) & RCC_PERIPHCLK_FMPI2C1) == RCC_PERIPHCLK_FMPI2C1)
 8001404:	6823      	ldr	r3, [r4, #0]
 8001406:	061a      	lsls	r2, r3, #24
 8001408:	d508      	bpl.n	800141c <HAL_RCCEx_PeriphCLKConfig+0x124>
  {
    /* Check the parameters */
    assert_param(IS_RCC_FMPI2C1CLKSOURCE(PeriphClkInit->Fmpi2c1ClockSelection));

    /* Configure the FMPI2C1 clock source */
    __HAL_RCC_FMPI2C1_CONFIG(PeriphClkInit->Fmpi2c1ClockSelection);
 800140a:	4969      	ldr	r1, [pc, #420]	; (80015b0 <HAL_RCCEx_PeriphCLKConfig+0x2b8>)
 800140c:	6ce0      	ldr	r0, [r4, #76]	; 0x4c
 800140e:	f8d1 2094 	ldr.w	r2, [r1, #148]	; 0x94
 8001412:	f422 0240 	bic.w	r2, r2, #12582912	; 0xc00000
 8001416:	4302      	orrs	r2, r0
 8001418:	f8c1 2094 	str.w	r2, [r1, #148]	; 0x94
  }
  /*--------------------------------------------------------------------------*/

  /*------------------------------ CEC Configuration -------------------------*/
  if(((PeriphClkInit->PeriphClockSelection) & RCC_PERIPHCLK_CEC) == RCC_PERIPHCLK_CEC)
 800141c:	065f      	lsls	r7, r3, #25
 800141e:	d508      	bpl.n	8001432 <HAL_RCCEx_PeriphCLKConfig+0x13a>
  {
    /* Check the parameters */
    assert_param(IS_RCC_CECCLKSOURCE(PeriphClkInit->CecClockSelection));

    /* Configure the CEC clock source */
    __HAL_RCC_CEC_CONFIG(PeriphClkInit->CecClockSelection);
 8001420:	4963      	ldr	r1, [pc, #396]	; (80015b0 <HAL_RCCEx_PeriphCLKConfig+0x2b8>)
 8001422:	6ca0      	ldr	r0, [r4, #72]	; 0x48
 8001424:	f8d1 2094 	ldr.w	r2, [r1, #148]	; 0x94
 8001428:	f022 6280 	bic.w	r2, r2, #67108864	; 0x4000000
 800142c:	4302      	orrs	r2, r0
 800142e:	f8c1 2094 	str.w	r2, [r1, #148]	; 0x94
  }
  /*--------------------------------------------------------------------------*/

  /*----------------------------- CLK48 Configuration ------------------------*/
  if(((PeriphClkInit->PeriphClockSelection) & RCC_PERIPHCLK_CLK48) == RCC_PERIPHCLK_CLK48)
 8001432:	05d8      	lsls	r0, r3, #23
 8001434:	d50c      	bpl.n	8001450 <HAL_RCCEx_PeriphCLKConfig+0x158>
  {
    /* Check the parameters */
    assert_param(IS_RCC_CLK48CLKSOURCE(PeriphClkInit->Clk48ClockSelection));

    /* Configure the CLK48 clock source */
    __HAL_RCC_CLK48_CONFIG(PeriphClkInit->Clk48ClockSelection);
 8001436:	485e      	ldr	r0, [pc, #376]	; (80015b0 <HAL_RCCEx_PeriphCLKConfig+0x2b8>)
 8001438:	6d61      	ldr	r1, [r4, #84]	; 0x54
 800143a:	f8d0 2094 	ldr.w	r2, [r0, #148]	; 0x94
 800143e:	f022 6200 	bic.w	r2, r2, #134217728	; 0x8000000
 8001442:	430a      	orrs	r2, r1

    /* Enable the PLLSAI when it's used as clock source for CLK48 */
    if(PeriphClkInit->Clk48ClockSelection == RCC_CLK48CLKSOURCE_PLLSAIP)
    {
      pllsaiused = 1U;
 8001444:	f1b1 6f00 	cmp.w	r1, #134217728	; 0x8000000
    __HAL_RCC_CLK48_CONFIG(PeriphClkInit->Clk48ClockSelection);
 8001448:	f8c0 2094 	str.w	r2, [r0, #148]	; 0x94
      pllsaiused = 1U;
 800144c:	bf08      	it	eq
 800144e:	2501      	moveq	r5, #1
    }
  }
  /*--------------------------------------------------------------------------*/

  /*----------------------------- SDIO Configuration -------------------------*/
  if(((PeriphClkInit->PeriphClockSelection) & RCC_PERIPHCLK_SDIO) == RCC_PERIPHCLK_SDIO)
 8001450:	0599      	lsls	r1, r3, #22
 8001452:	d508      	bpl.n	8001466 <HAL_RCCEx_PeriphCLKConfig+0x16e>
  {
    /* Check the parameters */
    assert_param(IS_RCC_SDIOCLKSOURCE(PeriphClkInit->SdioClockSelection));

    /* Configure the SDIO clock source */
    __HAL_RCC_SDIO_CONFIG(PeriphClkInit->SdioClockSelection);
 8001454:	4956      	ldr	r1, [pc, #344]	; (80015b0 <HAL_RCCEx_PeriphCLKConfig+0x2b8>)
 8001456:	6c60      	ldr	r0, [r4, #68]	; 0x44
 8001458:	f8d1 2094 	ldr.w	r2, [r1, #148]	; 0x94
 800145c:	f022 5280 	bic.w	r2, r2, #268435456	; 0x10000000
 8001460:	4302      	orrs	r2, r0
 8001462:	f8c1 2094 	str.w	r2, [r1, #148]	; 0x94
  }
  /*--------------------------------------------------------------------------*/

  /*------------------------------ SPDIFRX Configuration ---------------------*/
  if(((PeriphClkInit->PeriphClockSelection) & RCC_PERIPHCLK_SPDIFRX) == RCC_PERIPHCLK_SPDIFRX)
 8001466:	055a      	lsls	r2, r3, #21
 8001468:	f100 80d1 	bmi.w	800160e <HAL_RCCEx_PeriphCLKConfig+0x316>
  /*--------------------------------------------------------------------------*/

  /*---------------------------- PLLI2S Configuration ------------------------*/
  /* PLLI2S is configured when a peripheral will use it as source clock : SAI1, SAI2, I2S on APB1,
     I2S on APB2 or SPDIFRX */
  if((plli2sused == 1U) || (PeriphClkInit->PeriphClockSelection == RCC_PERIPHCLK_PLLI2S))
 800146c:	2e01      	cmp	r6, #1
 800146e:	f040 80dc 	bne.w	800162a <HAL_RCCEx_PeriphCLKConfig+0x332>
  {
    /* Disable the PLLI2S */
    __HAL_RCC_PLLI2S_DISABLE();
 8001472:	4e52      	ldr	r6, [pc, #328]	; (80015bc <HAL_RCCEx_PeriphCLKConfig+0x2c4>)
    /* Get tick */
    tickstart = HAL_GetTick();
    /* Wait till PLLI2S is disabled */
    while(__HAL_RCC_GET_FLAG(RCC_FLAG_PLLI2SRDY)  != RESET)
 8001474:	4f4e      	ldr	r7, [pc, #312]	; (80015b0 <HAL_RCCEx_PeriphCLKConfig+0x2b8>)
    __HAL_RCC_PLLI2S_DISABLE();
 8001476:	2300      	movs	r3, #0
 8001478:	6033      	str	r3, [r6, #0]
    tickstart = HAL_GetTick();
 800147a:	f7ff f895 	bl	80005a8 <HAL_GetTick>
 800147e:	4680      	mov	r8, r0
    while(__HAL_RCC_GET_FLAG(RCC_FLAG_PLLI2SRDY)  != RESET)
 8001480:	683b      	ldr	r3, [r7, #0]
 8001482:	011b      	lsls	r3, r3, #4
 8001484:	f100 8125 	bmi.w	80016d2 <HAL_RCCEx_PeriphCLKConfig+0x3da>
    /* check for common PLLI2S Parameters */
    assert_param(IS_RCC_PLLI2SM_VALUE(PeriphClkInit->PLLI2S.PLLI2SM));
    assert_param(IS_RCC_PLLI2SN_VALUE(PeriphClkInit->PLLI2S.PLLI2SN));

    /*------ In Case of PLLI2S is selected as source clock for I2S -----------*/
    if(((((PeriphClkInit->PeriphClockSelection) & RCC_PERIPHCLK_I2S_APB1) == RCC_PERIPHCLK_I2S_APB1) && (PeriphClkInit->I2sApb1ClockSelection == RCC_I2SAPB1CLKSOURCE_PLLI2S)) ||
 8001488:	6822      	ldr	r2, [r4, #0]
 800148a:	07d0      	lsls	r0, r2, #31
 800148c:	d501      	bpl.n	8001492 <HAL_RCCEx_PeriphCLKConfig+0x19a>
 800148e:	6ba3      	ldr	r3, [r4, #56]	; 0x38
 8001490:	b11b      	cbz	r3, 800149a <HAL_RCCEx_PeriphCLKConfig+0x1a2>
 8001492:	0791      	lsls	r1, r2, #30
 8001494:	d515      	bpl.n	80014c2 <HAL_RCCEx_PeriphCLKConfig+0x1ca>
       ((((PeriphClkInit->PeriphClockSelection) & RCC_PERIPHCLK_I2S_APB2) == RCC_PERIPHCLK_I2S_APB2) && (PeriphClkInit->I2sApb2ClockSelection == RCC_I2SAPB2CLKSOURCE_PLLI2S)))
 8001496:	6be3      	ldr	r3, [r4, #60]	; 0x3c
 8001498:	b99b      	cbnz	r3, 80014c2 <HAL_RCCEx_PeriphCLKConfig+0x1ca>
    {
      /* check for Parameters */
      assert_param(IS_RCC_PLLI2SR_VALUE(PeriphClkInit->PLLI2S.PLLI2SR));

      /* Read PLLI2SP/PLLI2SQ value from PLLI2SCFGR register (this value is not needed for I2S configuration) */
      plli2sp = ((((RCC->PLLI2SCFGR & RCC_PLLI2SCFGR_PLLI2SP) >> RCC_PLLI2SCFGR_PLLI2SP_Pos) + 1U) << 1U);
 800149a:	4945      	ldr	r1, [pc, #276]	; (80015b0 <HAL_RCCEx_PeriphCLKConfig+0x2b8>)
 800149c:	f8d1 3084 	ldr.w	r3, [r1, #132]	; 0x84
      plli2sq = ((RCC->PLLI2SCFGR & RCC_PLLI2SCFGR_PLLI2SQ) >> RCC_PLLI2SCFGR_PLLI2SQ_Pos);
 80014a0:	f8d1 0084 	ldr.w	r0, [r1, #132]	; 0x84
      /* Configure the PLLI2S division factors */
      /* PLLI2S_VCO = f(VCO clock) = f(PLLI2S clock input) * (PLLI2SN/PLLI2SM) */
      /* I2SCLK = f(PLLI2S clock output) = f(VCO clock) / PLLI2SR */
      __HAL_RCC_PLLI2S_CONFIG(PeriphClkInit->PLLI2S.PLLI2SM, PeriphClkInit->PLLI2S.PLLI2SN , plli2sp, plli2sq, PeriphClkInit->PLLI2S.PLLI2SR);
 80014a4:	f403 3340 	and.w	r3, r3, #196608	; 0x30000
 80014a8:	f000 6070 	and.w	r0, r0, #251658240	; 0xf000000
 80014ac:	4303      	orrs	r3, r0
 80014ae:	6860      	ldr	r0, [r4, #4]
 80014b0:	4303      	orrs	r3, r0
 80014b2:	68a0      	ldr	r0, [r4, #8]
 80014b4:	ea43 1380 	orr.w	r3, r3, r0, lsl #6
 80014b8:	6960      	ldr	r0, [r4, #20]
 80014ba:	ea43 7300 	orr.w	r3, r3, r0, lsl #28
 80014be:	f8c1 3084 	str.w	r3, [r1, #132]	; 0x84
    }

    /*------- In Case of PLLI2S is selected as source clock for SAI ----------*/
    if(((((PeriphClkInit->PeriphClockSelection) & RCC_PERIPHCLK_SAI1) == RCC_PERIPHCLK_SAI1) && (PeriphClkInit->Sai1ClockSelection == RCC_SAI1CLKSOURCE_PLLI2S)) ||
 80014c2:	0753      	lsls	r3, r2, #29
 80014c4:	d503      	bpl.n	80014ce <HAL_RCCEx_PeriphCLKConfig+0x1d6>
 80014c6:	6b23      	ldr	r3, [r4, #48]	; 0x30
 80014c8:	f5b3 1f80 	cmp.w	r3, #1048576	; 0x100000
 80014cc:	d005      	beq.n	80014da <HAL_RCCEx_PeriphCLKConfig+0x1e2>
 80014ce:	0717      	lsls	r7, r2, #28
 80014d0:	d520      	bpl.n	8001514 <HAL_RCCEx_PeriphCLKConfig+0x21c>
       ((((PeriphClkInit->PeriphClockSelection) & RCC_PERIPHCLK_SAI2) == RCC_PERIPHCLK_SAI2) && (PeriphClkInit->Sai2ClockSelection == RCC_SAI2CLKSOURCE_PLLI2S)))
 80014d2:	6b63      	ldr	r3, [r4, #52]	; 0x34
 80014d4:	f5b3 0f80 	cmp.w	r3, #4194304	; 0x400000
 80014d8:	d11c      	bne.n	8001514 <HAL_RCCEx_PeriphCLKConfig+0x21c>
      assert_param(IS_RCC_PLLI2SQ_VALUE(PeriphClkInit->PLLI2S.PLLI2SQ));
      /* Check for PLLI2S/DIVQ parameters */
      assert_param(IS_RCC_PLLI2S_DIVQ_VALUE(PeriphClkInit->PLLI2SDivQ));

      /* Read PLLI2SP/PLLI2SR value from PLLI2SCFGR register (this value is not needed for SAI configuration) */
      plli2sp = ((((RCC->PLLI2SCFGR & RCC_PLLI2SCFGR_PLLI2SP) >> RCC_PLLI2SCFGR_PLLI2SP_Pos) + 1U) << 1U);
 80014da:	4935      	ldr	r1, [pc, #212]	; (80015b0 <HAL_RCCEx_PeriphCLKConfig+0x2b8>)
 80014dc:	f8d1 3084 	ldr.w	r3, [r1, #132]	; 0x84
      plli2sr = ((RCC->PLLI2SCFGR & RCC_PLLI2SCFGR_PLLI2SR) >> RCC_PLLI2SCFGR_PLLI2SR_Pos);
 80014e0:	f8d1 0084 	ldr.w	r0, [r1, #132]	; 0x84
      /* Configure the PLLI2S division factors */
      /* PLLI2S_VCO Input  = PLL_SOURCE/PLLI2SM */
      /* PLLI2S_VCO Output = PLLI2S_VCO Input * PLLI2SN */
      /* SAI_CLK(first level) = PLLI2S_VCO Output/PLLI2SQ */
      __HAL_RCC_PLLI2S_CONFIG(PeriphClkInit->PLLI2S.PLLI2SM, PeriphClkInit->PLLI2S.PLLI2SN , plli2sp, PeriphClkInit->PLLI2S.PLLI2SQ, plli2sr);
 80014e4:	f403 3340 	and.w	r3, r3, #196608	; 0x30000
 80014e8:	f000 40e0 	and.w	r0, r0, #1879048192	; 0x70000000
 80014ec:	4303      	orrs	r3, r0
 80014ee:	6860      	ldr	r0, [r4, #4]
 80014f0:	4303      	orrs	r3, r0
 80014f2:	68a0      	ldr	r0, [r4, #8]
 80014f4:	ea43 1380 	orr.w	r3, r3, r0, lsl #6
 80014f8:	6920      	ldr	r0, [r4, #16]
 80014fa:	ea43 6300 	orr.w	r3, r3, r0, lsl #24
 80014fe:	f8c1 3084 	str.w	r3, [r1, #132]	; 0x84

      /* SAI_CLK_x = SAI_CLK(first level)/PLLI2SDIVQ */
      __HAL_RCC_PLLI2S_PLLSAICLKDIVQ_CONFIG(PeriphClkInit->PLLI2SDivQ);
 8001502:	f8d1 008c 	ldr.w	r0, [r1, #140]	; 0x8c
 8001506:	6aa3      	ldr	r3, [r4, #40]	; 0x28
 8001508:	f020 001f 	bic.w	r0, r0, #31
 800150c:	3b01      	subs	r3, #1
 800150e:	4303      	orrs	r3, r0
 8001510:	f8c1 308c 	str.w	r3, [r1, #140]	; 0x8c
    }

    /*------ In Case of PLLI2S is selected as source clock for SPDIFRX -------*/
    if((((PeriphClkInit->PeriphClockSelection) & RCC_PERIPHCLK_SPDIFRX) == RCC_PERIPHCLK_SPDIFRX) && (PeriphClkInit->SpdifClockSelection == RCC_SPDIFRXCLKSOURCE_PLLI2SP))
 8001514:	0550      	lsls	r0, r2, #21
 8001516:	d51b      	bpl.n	8001550 <HAL_RCCEx_PeriphCLKConfig+0x258>
 8001518:	6d23      	ldr	r3, [r4, #80]	; 0x50
 800151a:	f1b3 5f00 	cmp.w	r3, #536870912	; 0x20000000
 800151e:	d117      	bne.n	8001550 <HAL_RCCEx_PeriphCLKConfig+0x258>
    {
      /* check for Parameters */
      assert_param(IS_RCC_PLLI2SP_VALUE(PeriphClkInit->PLLI2S.PLLI2SP));
      /* Read PLLI2SR value from PLLI2SCFGR register (this value is not need for SAI configuration) */
      plli2sq = ((((RCC->PLLI2SCFGR & RCC_PLLI2SCFGR_PLLI2SP) >> RCC_PLLI2SCFGR_PLLI2SP_Pos) + 1U) << 1U);
 8001520:	4823      	ldr	r0, [pc, #140]	; (80015b0 <HAL_RCCEx_PeriphCLKConfig+0x2b8>)
      plli2sr = ((RCC->PLLI2SCFGR & RCC_PLLI2SCFGR_PLLI2SR) >> RCC_PLLI2SCFGR_PLLI2SR_Pos);
      /* Configure the PLLI2S division factors */
      /* PLLI2S_VCO = f(VCO clock) = f(PLLI2S clock input) * (PLLI2SN/PLLI2SM) */
      /* SPDIFRXCLK = f(PLLI2S clock output) = f(VCO clock) / PLLI2SP */
      __HAL_RCC_PLLI2S_CONFIG(PeriphClkInit->PLLI2S.PLLI2SM, PeriphClkInit->PLLI2S.PLLI2SN , PeriphClkInit->PLLI2S.PLLI2SP, plli2sq, plli2sr);
 8001522:	6867      	ldr	r7, [r4, #4]
      plli2sq = ((((RCC->PLLI2SCFGR & RCC_PLLI2SCFGR_PLLI2SP) >> RCC_PLLI2SCFGR_PLLI2SP_Pos) + 1U) << 1U);
 8001524:	f8d0 1084 	ldr.w	r1, [r0, #132]	; 0x84
      plli2sr = ((RCC->PLLI2SCFGR & RCC_PLLI2SCFGR_PLLI2SR) >> RCC_PLLI2SCFGR_PLLI2SR_Pos);
 8001528:	f8d0 3084 	ldr.w	r3, [r0, #132]	; 0x84
      __HAL_RCC_PLLI2S_CONFIG(PeriphClkInit->PLLI2S.PLLI2SM, PeriphClkInit->PLLI2S.PLLI2SN , PeriphClkInit->PLLI2S.PLLI2SP, plli2sq, plli2sr);
 800152c:	f003 43e0 	and.w	r3, r3, #1879048192	; 0x70000000
 8001530:	433b      	orrs	r3, r7
 8001532:	68a7      	ldr	r7, [r4, #8]
      plli2sq = ((((RCC->PLLI2SCFGR & RCC_PLLI2SCFGR_PLLI2SP) >> RCC_PLLI2SCFGR_PLLI2SP_Pos) + 1U) << 1U);
 8001534:	f3c1 4101 	ubfx	r1, r1, #16, #2
 8001538:	3101      	adds	r1, #1
      __HAL_RCC_PLLI2S_CONFIG(PeriphClkInit->PLLI2S.PLLI2SM, PeriphClkInit->PLLI2S.PLLI2SN , PeriphClkInit->PLLI2S.PLLI2SP, plli2sq, plli2sr);
 800153a:	ea43 1387 	orr.w	r3, r3, r7, lsl #6
 800153e:	ea43 6341 	orr.w	r3, r3, r1, lsl #25
 8001542:	68e1      	ldr	r1, [r4, #12]
 8001544:	0849      	lsrs	r1, r1, #1
 8001546:	3901      	subs	r1, #1
 8001548:	ea43 4301 	orr.w	r3, r3, r1, lsl #16
 800154c:	f8c0 3084 	str.w	r3, [r0, #132]	; 0x84
    }

     /*----------------- In Case of PLLI2S is just selected  -----------------*/
    if((PeriphClkInit->PeriphClockSelection & RCC_PERIPHCLK_PLLI2S) == RCC_PERIPHCLK_PLLI2S)
 8001550:	0511      	lsls	r1, r2, #20
 8001552:	d511      	bpl.n	8001578 <HAL_RCCEx_PeriphCLKConfig+0x280>
      assert_param(IS_RCC_PLLI2SR_VALUE(PeriphClkInit->PLLI2S.PLLI2SR));
      assert_param(IS_RCC_PLLI2SQ_VALUE(PeriphClkInit->PLLI2S.PLLI2SQ));

      /* Configure the PLLI2S division factors */
      /* PLLI2S_VCO = f(VCO clock) = f(PLLI2S clock input) * (PLLI2SN/PLLI2SM) */
      __HAL_RCC_PLLI2S_CONFIG(PeriphClkInit->PLLI2S.PLLI2SM, PeriphClkInit->PLLI2S.PLLI2SN , PeriphClkInit->PLLI2S.PLLI2SP, PeriphClkInit->PLLI2S.PLLI2SQ, PeriphClkInit->PLLI2S.PLLI2SR);
 8001554:	6923      	ldr	r3, [r4, #16]
 8001556:	68a2      	ldr	r2, [r4, #8]
 8001558:	061b      	lsls	r3, r3, #24
 800155a:	ea43 1382 	orr.w	r3, r3, r2, lsl #6
 800155e:	6862      	ldr	r2, [r4, #4]
 8001560:	4313      	orrs	r3, r2
 8001562:	6962      	ldr	r2, [r4, #20]
 8001564:	ea43 7302 	orr.w	r3, r3, r2, lsl #28
 8001568:	68e2      	ldr	r2, [r4, #12]
 800156a:	0852      	lsrs	r2, r2, #1
 800156c:	3a01      	subs	r2, #1
 800156e:	ea43 4302 	orr.w	r3, r3, r2, lsl #16
 8001572:	4a0f      	ldr	r2, [pc, #60]	; (80015b0 <HAL_RCCEx_PeriphCLKConfig+0x2b8>)
 8001574:	f8c2 3084 	str.w	r3, [r2, #132]	; 0x84
    }

    /* Enable the PLLI2S */
    __HAL_RCC_PLLI2S_ENABLE();
 8001578:	2301      	movs	r3, #1
 800157a:	6033      	str	r3, [r6, #0]
    /* Get tick */
    tickstart = HAL_GetTick();
 800157c:	f7ff f814 	bl	80005a8 <HAL_GetTick>
    /* Wait till PLLI2S is ready */
    while(__HAL_RCC_GET_FLAG(RCC_FLAG_PLLI2SRDY)  == RESET)
 8001580:	4e0b      	ldr	r6, [pc, #44]	; (80015b0 <HAL_RCCEx_PeriphCLKConfig+0x2b8>)
    tickstart = HAL_GetTick();
 8001582:	4607      	mov	r7, r0
    while(__HAL_RCC_GET_FLAG(RCC_FLAG_PLLI2SRDY)  == RESET)
 8001584:	6833      	ldr	r3, [r6, #0]
 8001586:	011a      	lsls	r2, r3, #4
 8001588:	d453      	bmi.n	8001632 <HAL_RCCEx_PeriphCLKConfig+0x33a>
    {
      if((HAL_GetTick() - tickstart ) > PLLI2S_TIMEOUT_VALUE)
 800158a:	f7ff f80d 	bl	80005a8 <HAL_GetTick>
 800158e:	1bc0      	subs	r0, r0, r7
 8001590:	2802      	cmp	r0, #2
 8001592:	d9f7      	bls.n	8001584 <HAL_RCCEx_PeriphCLKConfig+0x28c>
 8001594:	e008      	b.n	80015a8 <HAL_RCCEx_PeriphCLKConfig+0x2b0>
      plli2sused = 1U;
 8001596:	2601      	movs	r6, #1
 8001598:	e6f7      	b.n	800138a <HAL_RCCEx_PeriphCLKConfig+0x92>
      if((HAL_GetTick() - tickstart ) > RCC_DBP_TIMEOUT_VALUE)
 800159a:	f7ff f805 	bl	80005a8 <HAL_GetTick>
 800159e:	eba0 0008 	sub.w	r0, r0, r8
 80015a2:	2802      	cmp	r0, #2
 80015a4:	f67f af07 	bls.w	80013b6 <HAL_RCCEx_PeriphCLKConfig+0xbe>
        return HAL_TIMEOUT;
 80015a8:	2003      	movs	r0, #3
        return HAL_TIMEOUT;
      }
    }
  }
  return HAL_OK;
}
 80015aa:	b003      	add	sp, #12
 80015ac:	e8bd 83f0 	ldmia.w	sp!, {r4, r5, r6, r7, r8, r9, pc}
 80015b0:	40023800 	.word	0x40023800
 80015b4:	40007000 	.word	0x40007000
 80015b8:	424711e0 	.word	0x424711e0
 80015bc:	42470068 	.word	0x42470068
    if((tmpreg1 != 0x00000000U) && ((tmpreg1) != (PeriphClkInit->RTCClockSelection & RCC_BDCR_RTCSEL)))
 80015c0:	6c22      	ldr	r2, [r4, #64]	; 0x40
 80015c2:	f402 7240 	and.w	r2, r2, #768	; 0x300
 80015c6:	4293      	cmp	r3, r2
 80015c8:	f43f aeff 	beq.w	80013ca <HAL_RCCEx_PeriphCLKConfig+0xd2>
      tmpreg1 = (RCC->BDCR & ~(RCC_BDCR_RTCSEL));
 80015cc:	6f3b      	ldr	r3, [r7, #112]	; 0x70
      __HAL_RCC_BACKUPRESET_FORCE();
 80015ce:	4a4b      	ldr	r2, [pc, #300]	; (80016fc <HAL_RCCEx_PeriphCLKConfig+0x404>)
 80015d0:	2101      	movs	r1, #1
 80015d2:	6011      	str	r1, [r2, #0]
      tmpreg1 = (RCC->BDCR & ~(RCC_BDCR_RTCSEL));
 80015d4:	f423 7340 	bic.w	r3, r3, #768	; 0x300
      __HAL_RCC_BACKUPRESET_RELEASE();
 80015d8:	2100      	movs	r1, #0
 80015da:	6011      	str	r1, [r2, #0]
      RCC->BDCR = tmpreg1;
 80015dc:	673b      	str	r3, [r7, #112]	; 0x70
      if(HAL_IS_BIT_SET(RCC->BDCR, RCC_BDCR_LSEON))
 80015de:	6f3b      	ldr	r3, [r7, #112]	; 0x70
 80015e0:	07db      	lsls	r3, r3, #31
 80015e2:	f57f aef2 	bpl.w	80013ca <HAL_RCCEx_PeriphCLKConfig+0xd2>
        tickstart = HAL_GetTick();
 80015e6:	f7fe ffdf 	bl	80005a8 <HAL_GetTick>
          if((HAL_GetTick() - tickstart ) > RCC_LSE_TIMEOUT_VALUE)
 80015ea:	f241 3988 	movw	r9, #5000	; 0x1388
        tickstart = HAL_GetTick();
 80015ee:	4680      	mov	r8, r0
        while(__HAL_RCC_GET_FLAG(RCC_FLAG_LSERDY) == RESET)
 80015f0:	6f3b      	ldr	r3, [r7, #112]	; 0x70
 80015f2:	0798      	lsls	r0, r3, #30
 80015f4:	f53f aee9 	bmi.w	80013ca <HAL_RCCEx_PeriphCLKConfig+0xd2>
          if((HAL_GetTick() - tickstart ) > RCC_LSE_TIMEOUT_VALUE)
 80015f8:	f7fe ffd6 	bl	80005a8 <HAL_GetTick>
 80015fc:	eba0 0008 	sub.w	r0, r0, r8
 8001600:	4548      	cmp	r0, r9
 8001602:	d9f5      	bls.n	80015f0 <HAL_RCCEx_PeriphCLKConfig+0x2f8>
 8001604:	e7d0      	b.n	80015a8 <HAL_RCCEx_PeriphCLKConfig+0x2b0>
    __HAL_RCC_RTC_CONFIG(PeriphClkInit->RTCClockSelection);
 8001606:	6891      	ldr	r1, [r2, #8]
 8001608:	f421 11f8 	bic.w	r1, r1, #2031616	; 0x1f0000
 800160c:	e6ed      	b.n	80013ea <HAL_RCCEx_PeriphCLKConfig+0xf2>
    __HAL_RCC_SPDIFRX_CONFIG(PeriphClkInit->SpdifClockSelection);
 800160e:	483c      	ldr	r0, [pc, #240]	; (8001700 <HAL_RCCEx_PeriphCLKConfig+0x408>)
 8001610:	6d21      	ldr	r1, [r4, #80]	; 0x50
 8001612:	f8d0 2094 	ldr.w	r2, [r0, #148]	; 0x94
 8001616:	f022 5200 	bic.w	r2, r2, #536870912	; 0x20000000
 800161a:	430a      	orrs	r2, r1
    if(PeriphClkInit->SpdifClockSelection == RCC_SPDIFRXCLKSOURCE_PLLI2SP)
 800161c:	f1b1 5f00 	cmp.w	r1, #536870912	; 0x20000000
    __HAL_RCC_SPDIFRX_CONFIG(PeriphClkInit->SpdifClockSelection);
 8001620:	f8c0 2094 	str.w	r2, [r0, #148]	; 0x94
    if(PeriphClkInit->SpdifClockSelection == RCC_SPDIFRXCLKSOURCE_PLLI2SP)
 8001624:	f47f af22 	bne.w	800146c <HAL_RCCEx_PeriphCLKConfig+0x174>
 8001628:	e723      	b.n	8001472 <HAL_RCCEx_PeriphCLKConfig+0x17a>
  if((plli2sused == 1U) || (PeriphClkInit->PeriphClockSelection == RCC_PERIPHCLK_PLLI2S))
 800162a:	f5b3 6f00 	cmp.w	r3, #2048	; 0x800
 800162e:	f43f af20 	beq.w	8001472 <HAL_RCCEx_PeriphCLKConfig+0x17a>
  if(pllsaiused == 1U)
 8001632:	2d01      	cmp	r5, #1
 8001634:	d14b      	bne.n	80016ce <HAL_RCCEx_PeriphCLKConfig+0x3d6>
    __HAL_RCC_PLLSAI_DISABLE();
 8001636:	4d33      	ldr	r5, [pc, #204]	; (8001704 <HAL_RCCEx_PeriphCLKConfig+0x40c>)
    while(__HAL_RCC_PLLSAI_GET_FLAG() != RESET)
 8001638:	4e31      	ldr	r6, [pc, #196]	; (8001700 <HAL_RCCEx_PeriphCLKConfig+0x408>)
    __HAL_RCC_PLLSAI_DISABLE();
 800163a:	2300      	movs	r3, #0
 800163c:	602b      	str	r3, [r5, #0]
    tickstart = HAL_GetTick();
 800163e:	f7fe ffb3 	bl	80005a8 <HAL_GetTick>
 8001642:	4607      	mov	r7, r0
    while(__HAL_RCC_PLLSAI_GET_FLAG() != RESET)
 8001644:	6833      	ldr	r3, [r6, #0]
 8001646:	009b      	lsls	r3, r3, #2
 8001648:	d44b      	bmi.n	80016e2 <HAL_RCCEx_PeriphCLKConfig+0x3ea>
    if(((((PeriphClkInit->PeriphClockSelection) & RCC_PERIPHCLK_SAI1) == RCC_PERIPHCLK_SAI1) && (PeriphClkInit->Sai1ClockSelection == RCC_SAI1CLKSOURCE_PLLSAI)) ||
 800164a:	6821      	ldr	r1, [r4, #0]
 800164c:	074e      	lsls	r6, r1, #29
 800164e:	d501      	bpl.n	8001654 <HAL_RCCEx_PeriphCLKConfig+0x35c>
 8001650:	6b23      	ldr	r3, [r4, #48]	; 0x30
 8001652:	b11b      	cbz	r3, 800165c <HAL_RCCEx_PeriphCLKConfig+0x364>
 8001654:	0708      	lsls	r0, r1, #28
 8001656:	d51a      	bpl.n	800168e <HAL_RCCEx_PeriphCLKConfig+0x396>
       ((((PeriphClkInit->PeriphClockSelection) & RCC_PERIPHCLK_SAI2) == RCC_PERIPHCLK_SAI2) && (PeriphClkInit->Sai2ClockSelection == RCC_SAI2CLKSOURCE_PLLSAI)))
 8001658:	6b63      	ldr	r3, [r4, #52]	; 0x34
 800165a:	b9c3      	cbnz	r3, 800168e <HAL_RCCEx_PeriphCLKConfig+0x396>
      pllsaip = ((((RCC->PLLSAICFGR & RCC_PLLSAICFGR_PLLSAIP) >> RCC_PLLSAICFGR_PLLSAIP_Pos) + 1U) << 1U);
 800165c:	4a28      	ldr	r2, [pc, #160]	; (8001700 <HAL_RCCEx_PeriphCLKConfig+0x408>)
      __HAL_RCC_PLLSAI_CONFIG(PeriphClkInit->PLLSAI.PLLSAIM, PeriphClkInit->PLLSAI.PLLSAIN , pllsaip, PeriphClkInit->PLLSAI.PLLSAIQ, 0U);
 800165e:	69a0      	ldr	r0, [r4, #24]
      pllsaip = ((((RCC->PLLSAICFGR & RCC_PLLSAICFGR_PLLSAIP) >> RCC_PLLSAICFGR_PLLSAIP_Pos) + 1U) << 1U);
 8001660:	f8d2 3088 	ldr.w	r3, [r2, #136]	; 0x88
      __HAL_RCC_PLLSAI_CONFIG(PeriphClkInit->PLLSAI.PLLSAIM, PeriphClkInit->PLLSAI.PLLSAIN , pllsaip, PeriphClkInit->PLLSAI.PLLSAIQ, 0U);
 8001664:	f403 3340 	and.w	r3, r3, #196608	; 0x30000
 8001668:	4303      	orrs	r3, r0
 800166a:	69e0      	ldr	r0, [r4, #28]
 800166c:	ea43 1380 	orr.w	r3, r3, r0, lsl #6
 8001670:	6a60      	ldr	r0, [r4, #36]	; 0x24
 8001672:	ea43 6300 	orr.w	r3, r3, r0, lsl #24
 8001676:	f8c2 3088 	str.w	r3, [r2, #136]	; 0x88
      __HAL_RCC_PLLSAI_PLLSAICLKDIVQ_CONFIG(PeriphClkInit->PLLSAIDivQ);
 800167a:	f8d2 308c 	ldr.w	r3, [r2, #140]	; 0x8c
 800167e:	6ae0      	ldr	r0, [r4, #44]	; 0x2c
 8001680:	f423 53f8 	bic.w	r3, r3, #7936	; 0x1f00
 8001684:	3801      	subs	r0, #1
 8001686:	ea43 2300 	orr.w	r3, r3, r0, lsl #8
 800168a:	f8c2 308c 	str.w	r3, [r2, #140]	; 0x8c
    if((((PeriphClkInit->PeriphClockSelection) & RCC_PERIPHCLK_CLK48) == RCC_PERIPHCLK_CLK48) && (PeriphClkInit->Clk48ClockSelection == RCC_CLK48CLKSOURCE_PLLSAIP))
 800168e:	05ca      	lsls	r2, r1, #23
 8001690:	d514      	bpl.n	80016bc <HAL_RCCEx_PeriphCLKConfig+0x3c4>
 8001692:	6d63      	ldr	r3, [r4, #84]	; 0x54
 8001694:	f1b3 6f00 	cmp.w	r3, #134217728	; 0x8000000
 8001698:	d110      	bne.n	80016bc <HAL_RCCEx_PeriphCLKConfig+0x3c4>
      pllsaiq = ((RCC->PLLSAICFGR & RCC_PLLSAICFGR_PLLSAIQ) >> RCC_PLLSAICFGR_PLLSAIQ_Pos);
 800169a:	4919      	ldr	r1, [pc, #100]	; (8001700 <HAL_RCCEx_PeriphCLKConfig+0x408>)
      __HAL_RCC_PLLSAI_CONFIG(PeriphClkInit->PLLSAI.PLLSAIM, PeriphClkInit->PLLSAI.PLLSAIN , PeriphClkInit->PLLSAI.PLLSAIP, pllsaiq, 0U);
 800169c:	69a2      	ldr	r2, [r4, #24]
      pllsaiq = ((RCC->PLLSAICFGR & RCC_PLLSAICFGR_PLLSAIQ) >> RCC_PLLSAICFGR_PLLSAIQ_Pos);
 800169e:	f8d1 3088 	ldr.w	r3, [r1, #136]	; 0x88
      __HAL_RCC_PLLSAI_CONFIG(PeriphClkInit->PLLSAI.PLLSAIM, PeriphClkInit->PLLSAI.PLLSAIN , PeriphClkInit->PLLSAI.PLLSAIP, pllsaiq, 0U);
 80016a2:	f003 6370 	and.w	r3, r3, #251658240	; 0xf000000
 80016a6:	4313      	orrs	r3, r2
 80016a8:	69e2      	ldr	r2, [r4, #28]
 80016aa:	ea43 1382 	orr.w	r3, r3, r2, lsl #6
 80016ae:	6a22      	ldr	r2, [r4, #32]
 80016b0:	0852      	lsrs	r2, r2, #1
 80016b2:	3a01      	subs	r2, #1
 80016b4:	ea43 4302 	orr.w	r3, r3, r2, lsl #16
 80016b8:	f8c1 3088 	str.w	r3, [r1, #136]	; 0x88
    __HAL_RCC_PLLSAI_ENABLE();
 80016bc:	2301      	movs	r3, #1
 80016be:	602b      	str	r3, [r5, #0]
    tickstart = HAL_GetTick();
 80016c0:	f7fe ff72 	bl	80005a8 <HAL_GetTick>
    while(__HAL_RCC_PLLSAI_GET_FLAG() == RESET)
 80016c4:	4c0e      	ldr	r4, [pc, #56]	; (8001700 <HAL_RCCEx_PeriphCLKConfig+0x408>)
    tickstart = HAL_GetTick();
 80016c6:	4605      	mov	r5, r0
    while(__HAL_RCC_PLLSAI_GET_FLAG() == RESET)
 80016c8:	6823      	ldr	r3, [r4, #0]
 80016ca:	009b      	lsls	r3, r3, #2
 80016cc:	d50f      	bpl.n	80016ee <HAL_RCCEx_PeriphCLKConfig+0x3f6>
  return HAL_OK;
 80016ce:	2000      	movs	r0, #0
 80016d0:	e76b      	b.n	80015aa <HAL_RCCEx_PeriphCLKConfig+0x2b2>
      if((HAL_GetTick() - tickstart ) > PLLI2S_TIMEOUT_VALUE)
 80016d2:	f7fe ff69 	bl	80005a8 <HAL_GetTick>
 80016d6:	eba0 0008 	sub.w	r0, r0, r8
 80016da:	2802      	cmp	r0, #2
 80016dc:	f67f aed0 	bls.w	8001480 <HAL_RCCEx_PeriphCLKConfig+0x188>
 80016e0:	e762      	b.n	80015a8 <HAL_RCCEx_PeriphCLKConfig+0x2b0>
      if((HAL_GetTick() - tickstart ) > PLLSAI_TIMEOUT_VALUE)
 80016e2:	f7fe ff61 	bl	80005a8 <HAL_GetTick>
 80016e6:	1bc0      	subs	r0, r0, r7
 80016e8:	2802      	cmp	r0, #2
 80016ea:	d9ab      	bls.n	8001644 <HAL_RCCEx_PeriphCLKConfig+0x34c>
 80016ec:	e75c      	b.n	80015a8 <HAL_RCCEx_PeriphCLKConfig+0x2b0>
      if((HAL_GetTick() - tickstart ) > PLLSAI_TIMEOUT_VALUE)
 80016ee:	f7fe ff5b 	bl	80005a8 <HAL_GetTick>
 80016f2:	1b40      	subs	r0, r0, r5
 80016f4:	2802      	cmp	r0, #2
 80016f6:	d9e7      	bls.n	80016c8 <HAL_RCCEx_PeriphCLKConfig+0x3d0>
 80016f8:	e756      	b.n	80015a8 <HAL_RCCEx_PeriphCLKConfig+0x2b0>
 80016fa:	bf00      	nop
 80016fc:	42470e40 	.word	0x42470e40
 8001700:	40023800 	.word	0x40023800
 8001704:	42470070 	.word	0x42470070

08001708 <HAL_RCC_GetSysClockFreq>:
  uint32_t pllp = 0U;
  uint32_t pllr = 0U;
  uint32_t sysclockfreq = 0U;

  /* Get SYSCLK source -------------------------------------------------------*/
  switch (RCC->CFGR & RCC_CFGR_SWS)
 8001708:	4920      	ldr	r1, [pc, #128]	; (800178c <HAL_RCC_GetSysClockFreq+0x84>)
{
 800170a:	b508      	push	{r3, lr}
  switch (RCC->CFGR & RCC_CFGR_SWS)
 800170c:	688b      	ldr	r3, [r1, #8]
 800170e:	f003 030c 	and.w	r3, r3, #12
 8001712:	2b08      	cmp	r3, #8
 8001714:	d007      	beq.n	8001726 <HAL_RCC_GetSysClockFreq+0x1e>
 8001716:	2b0c      	cmp	r3, #12
 8001718:	d020      	beq.n	800175c <HAL_RCC_GetSysClockFreq+0x54>
  {
    case RCC_CFGR_SWS_HSI:  /* HSI used as system clock source */
    {
      sysclockfreq = HSI_VALUE;
 800171a:	4a1d      	ldr	r2, [pc, #116]	; (8001790 <HAL_RCC_GetSysClockFreq+0x88>)
 800171c:	481d      	ldr	r0, [pc, #116]	; (8001794 <HAL_RCC_GetSysClockFreq+0x8c>)
 800171e:	2b04      	cmp	r3, #4
 8001720:	bf18      	it	ne
 8001722:	4610      	movne	r0, r2
 8001724:	bd08      	pop	{r3, pc}
    }
    case RCC_CFGR_SWS_PLL:  /* PLL/PLLP used as system clock  source */
    {
      /* PLL_VCO = (HSE_VALUE or HSI_VALUE / PLLM) * PLLN
      SYSCLK = PLL_VCO / PLLP */
      pllm = RCC->PLLCFGR & RCC_PLLCFGR_PLLM;
 8001726:	684a      	ldr	r2, [r1, #4]
      if(__HAL_RCC_GET_PLL_OSCSOURCE() != RCC_PLLSOURCE_HSI)
 8001728:	684b      	ldr	r3, [r1, #4]
      {
        /* HSE used as PLL clock source */
        pllvco = (uint32_t) ((((uint64_t) HSE_VALUE * ((uint64_t) ((RCC->PLLCFGR & RCC_PLLCFGR_PLLN) >> RCC_PLLCFGR_PLLN_Pos)))) / (uint64_t)pllm);
 800172a:	6849      	ldr	r1, [r1, #4]
      if(__HAL_RCC_GET_PLL_OSCSOURCE() != RCC_PLLSOURCE_HSI)
 800172c:	f413 0380 	ands.w	r3, r3, #4194304	; 0x400000
        pllvco = (uint32_t) ((((uint64_t) HSE_VALUE * ((uint64_t) ((RCC->PLLCFGR & RCC_PLLCFGR_PLLN) >> RCC_PLLCFGR_PLLN_Pos)))) / (uint64_t)pllm);
 8001730:	bf14      	ite	ne
 8001732:	4818      	ldrne	r0, [pc, #96]	; (8001794 <HAL_RCC_GetSysClockFreq+0x8c>)
      }
      else
      {
        /* HSI used as PLL clock source */
        pllvco = (uint32_t) ((((uint64_t) HSI_VALUE * ((uint64_t) ((RCC->PLLCFGR & RCC_PLLCFGR_PLLN) >> RCC_PLLCFGR_PLLN_Pos)))) / (uint64_t)pllm);
 8001734:	4816      	ldreq	r0, [pc, #88]	; (8001790 <HAL_RCC_GetSysClockFreq+0x88>)
        pllvco = (uint32_t) ((((uint64_t) HSE_VALUE * ((uint64_t) ((RCC->PLLCFGR & RCC_PLLCFGR_PLLN) >> RCC_PLLCFGR_PLLN_Pos)))) / (uint64_t)pllm);
 8001736:	f3c1 1188 	ubfx	r1, r1, #6, #9
 800173a:	bf18      	it	ne
 800173c:	2300      	movne	r3, #0
      pllm = RCC->PLLCFGR & RCC_PLLCFGR_PLLM;
 800173e:	f002 023f 	and.w	r2, r2, #63	; 0x3f
        pllvco = (uint32_t) ((((uint64_t) HSI_VALUE * ((uint64_t) ((RCC->PLLCFGR & RCC_PLLCFGR_PLLN) >> RCC_PLLCFGR_PLLN_Pos)))) / (uint64_t)pllm);
 8001742:	fba1 0100 	umull	r0, r1, r1, r0
 8001746:	f7fe fd5d 	bl	8000204 <__aeabi_uldivmod>
      }
      pllp = ((((RCC->PLLCFGR & RCC_PLLCFGR_PLLP) >> RCC_PLLCFGR_PLLP_Pos) + 1U) *2U);
 800174a:	4b10      	ldr	r3, [pc, #64]	; (800178c <HAL_RCC_GetSysClockFreq+0x84>)
 800174c:	685b      	ldr	r3, [r3, #4]
 800174e:	f3c3 4301 	ubfx	r3, r3, #16, #2
 8001752:	3301      	adds	r3, #1
 8001754:	005b      	lsls	r3, r3, #1
        /* HSI used as PLL clock source */
        pllvco = (uint32_t) ((((uint64_t) HSI_VALUE * ((uint64_t) ((RCC->PLLCFGR & RCC_PLLCFGR_PLLN) >> RCC_PLLCFGR_PLLN_Pos)))) / (uint64_t)pllm);
      }
      pllr = ((RCC->PLLCFGR & RCC_PLLCFGR_PLLR) >> RCC_PLLCFGR_PLLR_Pos);

      sysclockfreq = pllvco/pllr;
 8001756:	fbb0 f0f3 	udiv	r0, r0, r3
      sysclockfreq = HSI_VALUE;
      break;
    }
  }
  return sysclockfreq;
}
 800175a:	bd08      	pop	{r3, pc}
      pllm = RCC->PLLCFGR & RCC_PLLCFGR_PLLM;
 800175c:	684a      	ldr	r2, [r1, #4]
      if(__HAL_RCC_GET_PLL_OSCSOURCE() != RCC_PLLSOURCE_HSI)
 800175e:	684b      	ldr	r3, [r1, #4]
        pllvco = (uint32_t) ((((uint64_t) HSE_VALUE * ((uint64_t) ((RCC->PLLCFGR & RCC_PLLCFGR_PLLN) >> RCC_PLLCFGR_PLLN_Pos)))) / (uint64_t)pllm);
 8001760:	6849      	ldr	r1, [r1, #4]
      if(__HAL_RCC_GET_PLL_OSCSOURCE() != RCC_PLLSOURCE_HSI)
 8001762:	f413 0380 	ands.w	r3, r3, #4194304	; 0x400000
        pllvco = (uint32_t) ((((uint64_t) HSE_VALUE * ((uint64_t) ((RCC->PLLCFGR & RCC_PLLCFGR_PLLN) >> RCC_PLLCFGR_PLLN_Pos)))) / (uint64_t)pllm);
 8001766:	bf14      	ite	ne
 8001768:	480a      	ldrne	r0, [pc, #40]	; (8001794 <HAL_RCC_GetSysClockFreq+0x8c>)
        pllvco = (uint32_t) ((((uint64_t) HSI_VALUE * ((uint64_t) ((RCC->PLLCFGR & RCC_PLLCFGR_PLLN) >> RCC_PLLCFGR_PLLN_Pos)))) / (uint64_t)pllm);
 800176a:	4809      	ldreq	r0, [pc, #36]	; (8001790 <HAL_RCC_GetSysClockFreq+0x88>)
        pllvco = (uint32_t) ((((uint64_t) HSE_VALUE * ((uint64_t) ((RCC->PLLCFGR & RCC_PLLCFGR_PLLN) >> RCC_PLLCFGR_PLLN_Pos)))) / (uint64_t)pllm);
 800176c:	f3c1 1188 	ubfx	r1, r1, #6, #9
 8001770:	bf18      	it	ne
 8001772:	2300      	movne	r3, #0
      pllm = RCC->PLLCFGR & RCC_PLLCFGR_PLLM;
 8001774:	f002 023f 	and.w	r2, r2, #63	; 0x3f
        pllvco = (uint32_t) ((((uint64_t) HSI_VALUE * ((uint64_t) ((RCC->PLLCFGR & RCC_PLLCFGR_PLLN) >> RCC_PLLCFGR_PLLN_Pos)))) / (uint64_t)pllm);
 8001778:	fba1 0100 	umull	r0, r1, r1, r0
 800177c:	f7fe fd42 	bl	8000204 <__aeabi_uldivmod>
      pllr = ((RCC->PLLCFGR & RCC_PLLCFGR_PLLR) >> RCC_PLLCFGR_PLLR_Pos);
 8001780:	4b02      	ldr	r3, [pc, #8]	; (800178c <HAL_RCC_GetSysClockFreq+0x84>)
 8001782:	685b      	ldr	r3, [r3, #4]
 8001784:	f3c3 7302 	ubfx	r3, r3, #28, #3
 8001788:	e7e5      	b.n	8001756 <HAL_RCC_GetSysClockFreq+0x4e>
 800178a:	bf00      	nop
 800178c:	40023800 	.word	0x40023800
 8001790:	00f42400 	.word	0x00f42400
 8001794:	007a1200 	.word	0x007a1200

08001798 <HAL_RCC_OscConfig>:
  uint32_t tickstart = 0U;

  /* Check the parameters */
  assert_param(IS_RCC_OSCILLATORTYPE(RCC_OscInitStruct->OscillatorType));
  /*------------------------------- HSE Configuration ------------------------*/
  if(((RCC_OscInitStruct->OscillatorType) & RCC_OSCILLATORTYPE_HSE) == RCC_OSCILLATORTYPE_HSE)
 8001798:	6803      	ldr	r3, [r0, #0]
{
 800179a:	e92d 41f3 	stmdb	sp!, {r0, r1, r4, r5, r6, r7, r8, lr}
  if(((RCC_OscInitStruct->OscillatorType) & RCC_OSCILLATORTYPE_HSE) == RCC_OSCILLATORTYPE_HSE)
 800179e:	07df      	lsls	r7, r3, #31
{
 80017a0:	4604      	mov	r4, r0
  if(((RCC_OscInitStruct->OscillatorType) & RCC_OSCILLATORTYPE_HSE) == RCC_OSCILLATORTYPE_HSE)
 80017a2:	d410      	bmi.n	80017c6 <HAL_RCC_OscConfig+0x2e>
        }
      }
    }
  }
  /*----------------------------- HSI Configuration --------------------------*/
  if(((RCC_OscInitStruct->OscillatorType) & RCC_OSCILLATORTYPE_HSI) == RCC_OSCILLATORTYPE_HSI)
 80017a4:	6823      	ldr	r3, [r4, #0]
 80017a6:	079e      	lsls	r6, r3, #30
 80017a8:	d467      	bmi.n	800187a <HAL_RCC_OscConfig+0xe2>
        }
      }
    }
  }
  /*------------------------------ LSI Configuration -------------------------*/
  if(((RCC_OscInitStruct->OscillatorType) & RCC_OSCILLATORTYPE_LSI) == RCC_OSCILLATORTYPE_LSI)
 80017aa:	6823      	ldr	r3, [r4, #0]
 80017ac:	071a      	lsls	r2, r3, #28
 80017ae:	f100 80b2 	bmi.w	8001916 <HAL_RCC_OscConfig+0x17e>
        }
      }
    }
  }
  /*------------------------------ LSE Configuration -------------------------*/
  if(((RCC_OscInitStruct->OscillatorType) & RCC_OSCILLATORTYPE_LSE) == RCC_OSCILLATORTYPE_LSE)
 80017b2:	6823      	ldr	r3, [r4, #0]
 80017b4:	075b      	lsls	r3, r3, #29
 80017b6:	f100 80d0 	bmi.w	800195a <HAL_RCC_OscConfig+0x1c2>
    }
  }
  /*-------------------------------- PLL Configuration -----------------------*/
  /* Check the parameters */
  assert_param(IS_RCC_PLL(RCC_OscInitStruct->PLL.PLLState));
  if ((RCC_OscInitStruct->PLL.PLLState) != RCC_PLL_NONE)
 80017ba:	69a2      	ldr	r2, [r4, #24]
 80017bc:	2a00      	cmp	r2, #0
 80017be:	f040 8139 	bne.w	8001a34 <HAL_RCC_OscConfig+0x29c>
    else
    {
      return HAL_ERROR;
    }
  }
  return HAL_OK;
 80017c2:	2000      	movs	r0, #0
 80017c4:	e01e      	b.n	8001804 <HAL_RCC_OscConfig+0x6c>
    if((__HAL_RCC_GET_SYSCLK_SOURCE() == RCC_CFGR_SWS_HSE)                                                                     ||\
 80017c6:	4b97      	ldr	r3, [pc, #604]	; (8001a24 <HAL_RCC_OscConfig+0x28c>)
 80017c8:	689a      	ldr	r2, [r3, #8]
 80017ca:	f002 020c 	and.w	r2, r2, #12
 80017ce:	2a04      	cmp	r2, #4
 80017d0:	d010      	beq.n	80017f4 <HAL_RCC_OscConfig+0x5c>
      ((__HAL_RCC_GET_SYSCLK_SOURCE() == RCC_CFGR_SWS_PLL) && ((RCC->PLLCFGR & RCC_PLLCFGR_PLLSRC) == RCC_PLLCFGR_PLLSRC_HSE)) ||\
 80017d2:	689a      	ldr	r2, [r3, #8]
 80017d4:	f002 020c 	and.w	r2, r2, #12
    if((__HAL_RCC_GET_SYSCLK_SOURCE() == RCC_CFGR_SWS_HSE)                                                                     ||\
 80017d8:	2a08      	cmp	r2, #8
 80017da:	d102      	bne.n	80017e2 <HAL_RCC_OscConfig+0x4a>
      ((__HAL_RCC_GET_SYSCLK_SOURCE() == RCC_CFGR_SWS_PLL) && ((RCC->PLLCFGR & RCC_PLLCFGR_PLLSRC) == RCC_PLLCFGR_PLLSRC_HSE)) ||\
 80017dc:	685b      	ldr	r3, [r3, #4]
 80017de:	025d      	lsls	r5, r3, #9
 80017e0:	d408      	bmi.n	80017f4 <HAL_RCC_OscConfig+0x5c>
      ((__HAL_RCC_GET_SYSCLK_SOURCE() == RCC_CFGR_SWS_PLLR) && ((RCC->PLLCFGR & RCC_PLLCFGR_PLLSRC) == RCC_PLLCFGR_PLLSRC_HSE)))
 80017e2:	4b90      	ldr	r3, [pc, #576]	; (8001a24 <HAL_RCC_OscConfig+0x28c>)
 80017e4:	689a      	ldr	r2, [r3, #8]
 80017e6:	f002 020c 	and.w	r2, r2, #12
      ((__HAL_RCC_GET_SYSCLK_SOURCE() == RCC_CFGR_SWS_PLL) && ((RCC->PLLCFGR & RCC_PLLCFGR_PLLSRC) == RCC_PLLCFGR_PLLSRC_HSE)) ||\
 80017ea:	2a0c      	cmp	r2, #12
 80017ec:	d10d      	bne.n	800180a <HAL_RCC_OscConfig+0x72>
      ((__HAL_RCC_GET_SYSCLK_SOURCE() == RCC_CFGR_SWS_PLLR) && ((RCC->PLLCFGR & RCC_PLLCFGR_PLLSRC) == RCC_PLLCFGR_PLLSRC_HSE)))
 80017ee:	685a      	ldr	r2, [r3, #4]
 80017f0:	0250      	lsls	r0, r2, #9
 80017f2:	d50a      	bpl.n	800180a <HAL_RCC_OscConfig+0x72>
      if((__HAL_RCC_GET_FLAG(RCC_FLAG_HSERDY) != RESET) && (RCC_OscInitStruct->HSEState == RCC_HSE_OFF))
 80017f4:	4b8b      	ldr	r3, [pc, #556]	; (8001a24 <HAL_RCC_OscConfig+0x28c>)
 80017f6:	681b      	ldr	r3, [r3, #0]
 80017f8:	0399      	lsls	r1, r3, #14
 80017fa:	d5d3      	bpl.n	80017a4 <HAL_RCC_OscConfig+0xc>
 80017fc:	6863      	ldr	r3, [r4, #4]
 80017fe:	2b00      	cmp	r3, #0
 8001800:	d1d0      	bne.n	80017a4 <HAL_RCC_OscConfig+0xc>
        return HAL_ERROR;
 8001802:	2001      	movs	r0, #1
}
 8001804:	b002      	add	sp, #8
 8001806:	e8bd 81f0 	ldmia.w	sp!, {r4, r5, r6, r7, r8, pc}
      __HAL_RCC_HSE_CONFIG(RCC_OscInitStruct->HSEState);
 800180a:	6862      	ldr	r2, [r4, #4]
 800180c:	f5b2 3f80 	cmp.w	r2, #65536	; 0x10000
 8001810:	d111      	bne.n	8001836 <HAL_RCC_OscConfig+0x9e>
 8001812:	681a      	ldr	r2, [r3, #0]
 8001814:	f442 3280 	orr.w	r2, r2, #65536	; 0x10000
 8001818:	601a      	str	r2, [r3, #0]
        tickstart = HAL_GetTick();
 800181a:	f7fe fec5 	bl	80005a8 <HAL_GetTick>
        while(__HAL_RCC_GET_FLAG(RCC_FLAG_HSERDY) == RESET)
 800181e:	4d81      	ldr	r5, [pc, #516]	; (8001a24 <HAL_RCC_OscConfig+0x28c>)
        tickstart = HAL_GetTick();
 8001820:	4606      	mov	r6, r0
        while(__HAL_RCC_GET_FLAG(RCC_FLAG_HSERDY) == RESET)
 8001822:	682b      	ldr	r3, [r5, #0]
 8001824:	039a      	lsls	r2, r3, #14
 8001826:	d4bd      	bmi.n	80017a4 <HAL_RCC_OscConfig+0xc>
          if((HAL_GetTick() - tickstart ) > HSE_TIMEOUT_VALUE)
 8001828:	f7fe febe 	bl	80005a8 <HAL_GetTick>
 800182c:	1b80      	subs	r0, r0, r6
 800182e:	2864      	cmp	r0, #100	; 0x64
 8001830:	d9f7      	bls.n	8001822 <HAL_RCC_OscConfig+0x8a>
            return HAL_TIMEOUT;
 8001832:	2003      	movs	r0, #3
 8001834:	e7e6      	b.n	8001804 <HAL_RCC_OscConfig+0x6c>
 8001836:	4d7b      	ldr	r5, [pc, #492]	; (8001a24 <HAL_RCC_OscConfig+0x28c>)
      __HAL_RCC_HSE_CONFIG(RCC_OscInitStruct->HSEState);
 8001838:	f5b2 2fa0 	cmp.w	r2, #327680	; 0x50000
 800183c:	682b      	ldr	r3, [r5, #0]
 800183e:	d107      	bne.n	8001850 <HAL_RCC_OscConfig+0xb8>
 8001840:	f443 2380 	orr.w	r3, r3, #262144	; 0x40000
 8001844:	602b      	str	r3, [r5, #0]
 8001846:	682b      	ldr	r3, [r5, #0]
 8001848:	f443 3380 	orr.w	r3, r3, #65536	; 0x10000
 800184c:	602b      	str	r3, [r5, #0]
 800184e:	e7e4      	b.n	800181a <HAL_RCC_OscConfig+0x82>
 8001850:	f423 3380 	bic.w	r3, r3, #65536	; 0x10000
 8001854:	602b      	str	r3, [r5, #0]
 8001856:	682b      	ldr	r3, [r5, #0]
 8001858:	f423 2380 	bic.w	r3, r3, #262144	; 0x40000
 800185c:	602b      	str	r3, [r5, #0]
      if((RCC_OscInitStruct->HSEState) != RCC_HSE_OFF)
 800185e:	2a00      	cmp	r2, #0
 8001860:	d1db      	bne.n	800181a <HAL_RCC_OscConfig+0x82>
        tickstart = HAL_GetTick();
 8001862:	f7fe fea1 	bl	80005a8 <HAL_GetTick>
 8001866:	4606      	mov	r6, r0
        while(__HAL_RCC_GET_FLAG(RCC_FLAG_HSERDY) != RESET)
 8001868:	682b      	ldr	r3, [r5, #0]
 800186a:	039b      	lsls	r3, r3, #14
 800186c:	d59a      	bpl.n	80017a4 <HAL_RCC_OscConfig+0xc>
          if((HAL_GetTick() - tickstart ) > HSE_TIMEOUT_VALUE)
 800186e:	f7fe fe9b 	bl	80005a8 <HAL_GetTick>
 8001872:	1b80      	subs	r0, r0, r6
 8001874:	2864      	cmp	r0, #100	; 0x64
 8001876:	d9f7      	bls.n	8001868 <HAL_RCC_OscConfig+0xd0>
 8001878:	e7db      	b.n	8001832 <HAL_RCC_OscConfig+0x9a>
    if((__HAL_RCC_GET_SYSCLK_SOURCE() == RCC_CFGR_SWS_HSI)                                                                     ||\
 800187a:	4b6a      	ldr	r3, [pc, #424]	; (8001a24 <HAL_RCC_OscConfig+0x28c>)
 800187c:	689a      	ldr	r2, [r3, #8]
 800187e:	f012 0f0c 	tst.w	r2, #12
 8001882:	d010      	beq.n	80018a6 <HAL_RCC_OscConfig+0x10e>
      ((__HAL_RCC_GET_SYSCLK_SOURCE() == RCC_CFGR_SWS_PLL) && ((RCC->PLLCFGR & RCC_PLLCFGR_PLLSRC) == RCC_PLLCFGR_PLLSRC_HSI)) ||\
 8001884:	689a      	ldr	r2, [r3, #8]
 8001886:	f002 020c 	and.w	r2, r2, #12
    if((__HAL_RCC_GET_SYSCLK_SOURCE() == RCC_CFGR_SWS_HSI)                                                                     ||\
 800188a:	2a08      	cmp	r2, #8
 800188c:	d102      	bne.n	8001894 <HAL_RCC_OscConfig+0xfc>
      ((__HAL_RCC_GET_SYSCLK_SOURCE() == RCC_CFGR_SWS_PLL) && ((RCC->PLLCFGR & RCC_PLLCFGR_PLLSRC) == RCC_PLLCFGR_PLLSRC_HSI)) ||\
 800188e:	685b      	ldr	r3, [r3, #4]
 8001890:	025f      	lsls	r7, r3, #9
 8001892:	d508      	bpl.n	80018a6 <HAL_RCC_OscConfig+0x10e>
      ((__HAL_RCC_GET_SYSCLK_SOURCE() == RCC_CFGR_SWS_PLLR) && ((RCC->PLLCFGR & RCC_PLLCFGR_PLLSRC) == RCC_PLLCFGR_PLLSRC_HSI)))
 8001894:	4a63      	ldr	r2, [pc, #396]	; (8001a24 <HAL_RCC_OscConfig+0x28c>)
 8001896:	6893      	ldr	r3, [r2, #8]
 8001898:	f003 030c 	and.w	r3, r3, #12
      ((__HAL_RCC_GET_SYSCLK_SOURCE() == RCC_CFGR_SWS_PLL) && ((RCC->PLLCFGR & RCC_PLLCFGR_PLLSRC) == RCC_PLLCFGR_PLLSRC_HSI)) ||\
 800189c:	2b0c      	cmp	r3, #12
 800189e:	d111      	bne.n	80018c4 <HAL_RCC_OscConfig+0x12c>
      ((__HAL_RCC_GET_SYSCLK_SOURCE() == RCC_CFGR_SWS_PLLR) && ((RCC->PLLCFGR & RCC_PLLCFGR_PLLSRC) == RCC_PLLCFGR_PLLSRC_HSI)))
 80018a0:	6853      	ldr	r3, [r2, #4]
 80018a2:	025e      	lsls	r6, r3, #9
 80018a4:	d40e      	bmi.n	80018c4 <HAL_RCC_OscConfig+0x12c>
      if((__HAL_RCC_GET_FLAG(RCC_FLAG_HSIRDY) != RESET) && (RCC_OscInitStruct->HSIState != RCC_HSI_ON))
 80018a6:	4b5f      	ldr	r3, [pc, #380]	; (8001a24 <HAL_RCC_OscConfig+0x28c>)
 80018a8:	681a      	ldr	r2, [r3, #0]
 80018aa:	0795      	lsls	r5, r2, #30
 80018ac:	d502      	bpl.n	80018b4 <HAL_RCC_OscConfig+0x11c>
 80018ae:	68e2      	ldr	r2, [r4, #12]
 80018b0:	2a01      	cmp	r2, #1
 80018b2:	d1a6      	bne.n	8001802 <HAL_RCC_OscConfig+0x6a>
        __HAL_RCC_HSI_CALIBRATIONVALUE_ADJUST(RCC_OscInitStruct->HSICalibrationValue);
 80018b4:	681a      	ldr	r2, [r3, #0]
 80018b6:	6921      	ldr	r1, [r4, #16]
 80018b8:	f022 02f8 	bic.w	r2, r2, #248	; 0xf8
 80018bc:	ea42 02c1 	orr.w	r2, r2, r1, lsl #3
 80018c0:	601a      	str	r2, [r3, #0]
      if((__HAL_RCC_GET_FLAG(RCC_FLAG_HSIRDY) != RESET) && (RCC_OscInitStruct->HSIState != RCC_HSI_ON))
 80018c2:	e772      	b.n	80017aa <HAL_RCC_OscConfig+0x12>
      if((RCC_OscInitStruct->HSIState)!= RCC_HSI_OFF)
 80018c4:	68e2      	ldr	r2, [r4, #12]
 80018c6:	4b58      	ldr	r3, [pc, #352]	; (8001a28 <HAL_RCC_OscConfig+0x290>)
 80018c8:	b1b2      	cbz	r2, 80018f8 <HAL_RCC_OscConfig+0x160>
        __HAL_RCC_HSI_ENABLE();
 80018ca:	2201      	movs	r2, #1
 80018cc:	601a      	str	r2, [r3, #0]
        tickstart = HAL_GetTick();
 80018ce:	f7fe fe6b 	bl	80005a8 <HAL_GetTick>
        while(__HAL_RCC_GET_FLAG(RCC_FLAG_HSIRDY) == RESET)
 80018d2:	4d54      	ldr	r5, [pc, #336]	; (8001a24 <HAL_RCC_OscConfig+0x28c>)
        tickstart = HAL_GetTick();
 80018d4:	4606      	mov	r6, r0
        while(__HAL_RCC_GET_FLAG(RCC_FLAG_HSIRDY) == RESET)
 80018d6:	682b      	ldr	r3, [r5, #0]
 80018d8:	0798      	lsls	r0, r3, #30
 80018da:	d507      	bpl.n	80018ec <HAL_RCC_OscConfig+0x154>
        __HAL_RCC_HSI_CALIBRATIONVALUE_ADJUST(RCC_OscInitStruct->HSICalibrationValue);
 80018dc:	682b      	ldr	r3, [r5, #0]
 80018de:	6922      	ldr	r2, [r4, #16]
 80018e0:	f023 03f8 	bic.w	r3, r3, #248	; 0xf8
 80018e4:	ea43 03c2 	orr.w	r3, r3, r2, lsl #3
 80018e8:	602b      	str	r3, [r5, #0]
 80018ea:	e75e      	b.n	80017aa <HAL_RCC_OscConfig+0x12>
          if((HAL_GetTick() - tickstart ) > HSI_TIMEOUT_VALUE)
 80018ec:	f7fe fe5c 	bl	80005a8 <HAL_GetTick>
 80018f0:	1b80      	subs	r0, r0, r6
 80018f2:	2802      	cmp	r0, #2
 80018f4:	d9ef      	bls.n	80018d6 <HAL_RCC_OscConfig+0x13e>
 80018f6:	e79c      	b.n	8001832 <HAL_RCC_OscConfig+0x9a>
        __HAL_RCC_HSI_DISABLE();
 80018f8:	601a      	str	r2, [r3, #0]
        tickstart = HAL_GetTick();
 80018fa:	f7fe fe55 	bl	80005a8 <HAL_GetTick>
        while(__HAL_RCC_GET_FLAG(RCC_FLAG_HSIRDY) != RESET)
 80018fe:	4d49      	ldr	r5, [pc, #292]	; (8001a24 <HAL_RCC_OscConfig+0x28c>)
        tickstart = HAL_GetTick();
 8001900:	4606      	mov	r6, r0
        while(__HAL_RCC_GET_FLAG(RCC_FLAG_HSIRDY) != RESET)
 8001902:	682b      	ldr	r3, [r5, #0]
 8001904:	0799      	lsls	r1, r3, #30
 8001906:	f57f af50 	bpl.w	80017aa <HAL_RCC_OscConfig+0x12>
          if((HAL_GetTick() - tickstart ) > HSI_TIMEOUT_VALUE)
 800190a:	f7fe fe4d 	bl	80005a8 <HAL_GetTick>
 800190e:	1b80      	subs	r0, r0, r6
 8001910:	2802      	cmp	r0, #2
 8001912:	d9f6      	bls.n	8001902 <HAL_RCC_OscConfig+0x16a>
 8001914:	e78d      	b.n	8001832 <HAL_RCC_OscConfig+0x9a>
    if((RCC_OscInitStruct->LSIState)!= RCC_LSI_OFF)
 8001916:	6962      	ldr	r2, [r4, #20]
 8001918:	4b44      	ldr	r3, [pc, #272]	; (8001a2c <HAL_RCC_OscConfig+0x294>)
 800191a:	b17a      	cbz	r2, 800193c <HAL_RCC_OscConfig+0x1a4>
      __HAL_RCC_LSI_ENABLE();
 800191c:	2201      	movs	r2, #1
 800191e:	601a      	str	r2, [r3, #0]
      tickstart = HAL_GetTick();
 8001920:	f7fe fe42 	bl	80005a8 <HAL_GetTick>
      while(__HAL_RCC_GET_FLAG(RCC_FLAG_LSIRDY) == RESET)
 8001924:	4d3f      	ldr	r5, [pc, #252]	; (8001a24 <HAL_RCC_OscConfig+0x28c>)
      tickstart = HAL_GetTick();
 8001926:	4606      	mov	r6, r0
      while(__HAL_RCC_GET_FLAG(RCC_FLAG_LSIRDY) == RESET)
 8001928:	6f6b      	ldr	r3, [r5, #116]	; 0x74
 800192a:	079f      	lsls	r7, r3, #30
 800192c:	f53f af41 	bmi.w	80017b2 <HAL_RCC_OscConfig+0x1a>
        if((HAL_GetTick() - tickstart ) > LSI_TIMEOUT_VALUE)
 8001930:	f7fe fe3a 	bl	80005a8 <HAL_GetTick>
 8001934:	1b80      	subs	r0, r0, r6
 8001936:	2802      	cmp	r0, #2
 8001938:	d9f6      	bls.n	8001928 <HAL_RCC_OscConfig+0x190>
 800193a:	e77a      	b.n	8001832 <HAL_RCC_OscConfig+0x9a>
      __HAL_RCC_LSI_DISABLE();
 800193c:	601a      	str	r2, [r3, #0]
      tickstart = HAL_GetTick();
 800193e:	f7fe fe33 	bl	80005a8 <HAL_GetTick>
      while(__HAL_RCC_GET_FLAG(RCC_FLAG_LSIRDY) != RESET)
 8001942:	4d38      	ldr	r5, [pc, #224]	; (8001a24 <HAL_RCC_OscConfig+0x28c>)
      tickstart = HAL_GetTick();
 8001944:	4606      	mov	r6, r0
      while(__HAL_RCC_GET_FLAG(RCC_FLAG_LSIRDY) != RESET)
 8001946:	6f6b      	ldr	r3, [r5, #116]	; 0x74
 8001948:	0798      	lsls	r0, r3, #30
 800194a:	f57f af32 	bpl.w	80017b2 <HAL_RCC_OscConfig+0x1a>
        if((HAL_GetTick() - tickstart ) > LSI_TIMEOUT_VALUE)
 800194e:	f7fe fe2b 	bl	80005a8 <HAL_GetTick>
 8001952:	1b80      	subs	r0, r0, r6
 8001954:	2802      	cmp	r0, #2
 8001956:	d9f6      	bls.n	8001946 <HAL_RCC_OscConfig+0x1ae>
 8001958:	e76b      	b.n	8001832 <HAL_RCC_OscConfig+0x9a>
    if(__HAL_RCC_PWR_IS_CLK_DISABLED())
 800195a:	4b32      	ldr	r3, [pc, #200]	; (8001a24 <HAL_RCC_OscConfig+0x28c>)
 800195c:	6c1a      	ldr	r2, [r3, #64]	; 0x40
 800195e:	f012 5280 	ands.w	r2, r2, #268435456	; 0x10000000
 8001962:	d128      	bne.n	80019b6 <HAL_RCC_OscConfig+0x21e>
      __HAL_RCC_PWR_CLK_ENABLE();
 8001964:	9201      	str	r2, [sp, #4]
 8001966:	6c1a      	ldr	r2, [r3, #64]	; 0x40
 8001968:	f042 5280 	orr.w	r2, r2, #268435456	; 0x10000000
 800196c:	641a      	str	r2, [r3, #64]	; 0x40
 800196e:	6c1b      	ldr	r3, [r3, #64]	; 0x40
 8001970:	f003 5380 	and.w	r3, r3, #268435456	; 0x10000000
 8001974:	9301      	str	r3, [sp, #4]
 8001976:	9b01      	ldr	r3, [sp, #4]
      pwrclkchanged = SET;
 8001978:	2601      	movs	r6, #1
    if(HAL_IS_BIT_CLR(PWR->CR, PWR_CR_DBP))
 800197a:	4d2d      	ldr	r5, [pc, #180]	; (8001a30 <HAL_RCC_OscConfig+0x298>)
 800197c:	682b      	ldr	r3, [r5, #0]
 800197e:	05d9      	lsls	r1, r3, #23
 8001980:	d51b      	bpl.n	80019ba <HAL_RCC_OscConfig+0x222>
    __HAL_RCC_LSE_CONFIG(RCC_OscInitStruct->LSEState);
 8001982:	68a3      	ldr	r3, [r4, #8]
 8001984:	4d27      	ldr	r5, [pc, #156]	; (8001a24 <HAL_RCC_OscConfig+0x28c>)
 8001986:	2b01      	cmp	r3, #1
 8001988:	d127      	bne.n	80019da <HAL_RCC_OscConfig+0x242>
 800198a:	6f2b      	ldr	r3, [r5, #112]	; 0x70
 800198c:	f043 0301 	orr.w	r3, r3, #1
 8001990:	672b      	str	r3, [r5, #112]	; 0x70
      tickstart = HAL_GetTick();
 8001992:	f7fe fe09 	bl	80005a8 <HAL_GetTick>
      while(__HAL_RCC_GET_FLAG(RCC_FLAG_LSERDY) == RESET)
 8001996:	4d23      	ldr	r5, [pc, #140]	; (8001a24 <HAL_RCC_OscConfig+0x28c>)
      tickstart = HAL_GetTick();
 8001998:	4607      	mov	r7, r0
        if((HAL_GetTick() - tickstart ) > RCC_LSE_TIMEOUT_VALUE)
 800199a:	f241 3888 	movw	r8, #5000	; 0x1388
      while(__HAL_RCC_GET_FLAG(RCC_FLAG_LSERDY) == RESET)
 800199e:	6f2b      	ldr	r3, [r5, #112]	; 0x70
 80019a0:	079b      	lsls	r3, r3, #30
 80019a2:	d539      	bpl.n	8001a18 <HAL_RCC_OscConfig+0x280>
    if(pwrclkchanged == SET)
 80019a4:	2e00      	cmp	r6, #0
 80019a6:	f43f af08 	beq.w	80017ba <HAL_RCC_OscConfig+0x22>
      __HAL_RCC_PWR_CLK_DISABLE();
 80019aa:	4a1e      	ldr	r2, [pc, #120]	; (8001a24 <HAL_RCC_OscConfig+0x28c>)
 80019ac:	6c13      	ldr	r3, [r2, #64]	; 0x40
 80019ae:	f023 5380 	bic.w	r3, r3, #268435456	; 0x10000000
 80019b2:	6413      	str	r3, [r2, #64]	; 0x40
 80019b4:	e701      	b.n	80017ba <HAL_RCC_OscConfig+0x22>
    FlagStatus       pwrclkchanged = RESET;
 80019b6:	2600      	movs	r6, #0
 80019b8:	e7df      	b.n	800197a <HAL_RCC_OscConfig+0x1e2>
      SET_BIT(PWR->CR, PWR_CR_DBP);
 80019ba:	682b      	ldr	r3, [r5, #0]
 80019bc:	f443 7380 	orr.w	r3, r3, #256	; 0x100
 80019c0:	602b      	str	r3, [r5, #0]
      tickstart = HAL_GetTick();
 80019c2:	f7fe fdf1 	bl	80005a8 <HAL_GetTick>
 80019c6:	4607      	mov	r7, r0
      while(HAL_IS_BIT_CLR(PWR->CR, PWR_CR_DBP))
 80019c8:	682b      	ldr	r3, [r5, #0]
 80019ca:	05da      	lsls	r2, r3, #23
 80019cc:	d4d9      	bmi.n	8001982 <HAL_RCC_OscConfig+0x1ea>
        if((HAL_GetTick() - tickstart) > RCC_DBP_TIMEOUT_VALUE)
 80019ce:	f7fe fdeb 	bl	80005a8 <HAL_GetTick>
 80019d2:	1bc0      	subs	r0, r0, r7
 80019d4:	2802      	cmp	r0, #2
 80019d6:	d9f7      	bls.n	80019c8 <HAL_RCC_OscConfig+0x230>
 80019d8:	e72b      	b.n	8001832 <HAL_RCC_OscConfig+0x9a>
    __HAL_RCC_LSE_CONFIG(RCC_OscInitStruct->LSEState);
 80019da:	2b05      	cmp	r3, #5
 80019dc:	d104      	bne.n	80019e8 <HAL_RCC_OscConfig+0x250>
 80019de:	6f2b      	ldr	r3, [r5, #112]	; 0x70
 80019e0:	f043 0304 	orr.w	r3, r3, #4
 80019e4:	672b      	str	r3, [r5, #112]	; 0x70
 80019e6:	e7d0      	b.n	800198a <HAL_RCC_OscConfig+0x1f2>
 80019e8:	6f2a      	ldr	r2, [r5, #112]	; 0x70
 80019ea:	f022 0201 	bic.w	r2, r2, #1
 80019ee:	672a      	str	r2, [r5, #112]	; 0x70
 80019f0:	6f2a      	ldr	r2, [r5, #112]	; 0x70
 80019f2:	f022 0204 	bic.w	r2, r2, #4
 80019f6:	672a      	str	r2, [r5, #112]	; 0x70
    if((RCC_OscInitStruct->LSEState) != RCC_LSE_OFF)
 80019f8:	2b00      	cmp	r3, #0
 80019fa:	d1ca      	bne.n	8001992 <HAL_RCC_OscConfig+0x1fa>
      tickstart = HAL_GetTick();
 80019fc:	f7fe fdd4 	bl	80005a8 <HAL_GetTick>
        if((HAL_GetTick() - tickstart ) > RCC_LSE_TIMEOUT_VALUE)
 8001a00:	f241 3888 	movw	r8, #5000	; 0x1388
      tickstart = HAL_GetTick();
 8001a04:	4607      	mov	r7, r0
      while(__HAL_RCC_GET_FLAG(RCC_FLAG_LSERDY) != RESET)
 8001a06:	6f2b      	ldr	r3, [r5, #112]	; 0x70
 8001a08:	0798      	lsls	r0, r3, #30
 8001a0a:	d5cb      	bpl.n	80019a4 <HAL_RCC_OscConfig+0x20c>
        if((HAL_GetTick() - tickstart ) > RCC_LSE_TIMEOUT_VALUE)
 8001a0c:	f7fe fdcc 	bl	80005a8 <HAL_GetTick>
 8001a10:	1bc0      	subs	r0, r0, r7
 8001a12:	4540      	cmp	r0, r8
 8001a14:	d9f7      	bls.n	8001a06 <HAL_RCC_OscConfig+0x26e>
 8001a16:	e70c      	b.n	8001832 <HAL_RCC_OscConfig+0x9a>
        if((HAL_GetTick() - tickstart ) > RCC_LSE_TIMEOUT_VALUE)
 8001a18:	f7fe fdc6 	bl	80005a8 <HAL_GetTick>
 8001a1c:	1bc0      	subs	r0, r0, r7
 8001a1e:	4540      	cmp	r0, r8
 8001a20:	d9bd      	bls.n	800199e <HAL_RCC_OscConfig+0x206>
 8001a22:	e706      	b.n	8001832 <HAL_RCC_OscConfig+0x9a>
 8001a24:	40023800 	.word	0x40023800
 8001a28:	42470000 	.word	0x42470000
 8001a2c:	42470e80 	.word	0x42470e80
 8001a30:	40007000 	.word	0x40007000
    if(__HAL_RCC_GET_SYSCLK_SOURCE() != RCC_CFGR_SWS_PLL)
 8001a34:	4d23      	ldr	r5, [pc, #140]	; (8001ac4 <HAL_RCC_OscConfig+0x32c>)
 8001a36:	68ab      	ldr	r3, [r5, #8]
 8001a38:	f003 030c 	and.w	r3, r3, #12
 8001a3c:	2b08      	cmp	r3, #8
 8001a3e:	f43f aee0 	beq.w	8001802 <HAL_RCC_OscConfig+0x6a>
 8001a42:	4e21      	ldr	r6, [pc, #132]	; (8001ac8 <HAL_RCC_OscConfig+0x330>)
 8001a44:	2300      	movs	r3, #0
      if((RCC_OscInitStruct->PLL.PLLState) == RCC_PLL_ON)
 8001a46:	2a02      	cmp	r2, #2
        __HAL_RCC_PLL_DISABLE();
 8001a48:	6033      	str	r3, [r6, #0]
      if((RCC_OscInitStruct->PLL.PLLState) == RCC_PLL_ON)
 8001a4a:	d12d      	bne.n	8001aa8 <HAL_RCC_OscConfig+0x310>
        tickstart = HAL_GetTick();
 8001a4c:	f7fe fdac 	bl	80005a8 <HAL_GetTick>
 8001a50:	4607      	mov	r7, r0
        while(__HAL_RCC_GET_FLAG(RCC_FLAG_PLLRDY) != RESET)
 8001a52:	682b      	ldr	r3, [r5, #0]
 8001a54:	0199      	lsls	r1, r3, #6
 8001a56:	d421      	bmi.n	8001a9c <HAL_RCC_OscConfig+0x304>
        __HAL_RCC_PLL_CONFIG(RCC_OscInitStruct->PLL.PLLSource,
 8001a58:	6a22      	ldr	r2, [r4, #32]
 8001a5a:	69e3      	ldr	r3, [r4, #28]
 8001a5c:	4313      	orrs	r3, r2
 8001a5e:	6a62      	ldr	r2, [r4, #36]	; 0x24
 8001a60:	ea43 1382 	orr.w	r3, r3, r2, lsl #6
 8001a64:	6ae2      	ldr	r2, [r4, #44]	; 0x2c
 8001a66:	ea43 6302 	orr.w	r3, r3, r2, lsl #24
 8001a6a:	6b22      	ldr	r2, [r4, #48]	; 0x30
 8001a6c:	ea43 7302 	orr.w	r3, r3, r2, lsl #28
 8001a70:	6aa2      	ldr	r2, [r4, #40]	; 0x28
        while(__HAL_RCC_GET_FLAG(RCC_FLAG_PLLRDY) == RESET)
 8001a72:	4c14      	ldr	r4, [pc, #80]	; (8001ac4 <HAL_RCC_OscConfig+0x32c>)
        __HAL_RCC_PLL_CONFIG(RCC_OscInitStruct->PLL.PLLSource,
 8001a74:	0852      	lsrs	r2, r2, #1
 8001a76:	3a01      	subs	r2, #1
 8001a78:	ea43 4302 	orr.w	r3, r3, r2, lsl #16
 8001a7c:	606b      	str	r3, [r5, #4]
        __HAL_RCC_PLL_ENABLE();
 8001a7e:	2301      	movs	r3, #1
 8001a80:	6033      	str	r3, [r6, #0]
        tickstart = HAL_GetTick();
 8001a82:	f7fe fd91 	bl	80005a8 <HAL_GetTick>
 8001a86:	4605      	mov	r5, r0
        while(__HAL_RCC_GET_FLAG(RCC_FLAG_PLLRDY) == RESET)
 8001a88:	6823      	ldr	r3, [r4, #0]
 8001a8a:	019a      	lsls	r2, r3, #6
 8001a8c:	f53f ae99 	bmi.w	80017c2 <HAL_RCC_OscConfig+0x2a>
          if((HAL_GetTick() - tickstart ) > PLL_TIMEOUT_VALUE)
 8001a90:	f7fe fd8a 	bl	80005a8 <HAL_GetTick>
 8001a94:	1b40      	subs	r0, r0, r5
 8001a96:	2802      	cmp	r0, #2
 8001a98:	d9f6      	bls.n	8001a88 <HAL_RCC_OscConfig+0x2f0>
 8001a9a:	e6ca      	b.n	8001832 <HAL_RCC_OscConfig+0x9a>
          if((HAL_GetTick() - tickstart ) > PLL_TIMEOUT_VALUE)
 8001a9c:	f7fe fd84 	bl	80005a8 <HAL_GetTick>
 8001aa0:	1bc0      	subs	r0, r0, r7
 8001aa2:	2802      	cmp	r0, #2
 8001aa4:	d9d5      	bls.n	8001a52 <HAL_RCC_OscConfig+0x2ba>
 8001aa6:	e6c4      	b.n	8001832 <HAL_RCC_OscConfig+0x9a>
        tickstart = HAL_GetTick();
 8001aa8:	f7fe fd7e 	bl	80005a8 <HAL_GetTick>
 8001aac:	4604      	mov	r4, r0
        while(__HAL_RCC_GET_FLAG(RCC_FLAG_PLLRDY) != RESET)
 8001aae:	682b      	ldr	r3, [r5, #0]
 8001ab0:	019b      	lsls	r3, r3, #6
 8001ab2:	f57f ae86 	bpl.w	80017c2 <HAL_RCC_OscConfig+0x2a>
          if((HAL_GetTick() - tickstart ) > PLL_TIMEOUT_VALUE)
 8001ab6:	f7fe fd77 	bl	80005a8 <HAL_GetTick>
 8001aba:	1b00      	subs	r0, r0, r4
 8001abc:	2802      	cmp	r0, #2
 8001abe:	d9f6      	bls.n	8001aae <HAL_RCC_OscConfig+0x316>
 8001ac0:	e6b7      	b.n	8001832 <HAL_RCC_OscConfig+0x9a>
 8001ac2:	bf00      	nop
 8001ac4:	40023800 	.word	0x40023800
 8001ac8:	42470060 	.word	0x42470060

08001acc <USB_CoreInit>:
  * @param  cfg  pointer to a USB_OTG_CfgTypeDef structure that contains
  *         the configuration information for the specified USBx peripheral.
  * @retval HAL status
  */
HAL_StatusTypeDef USB_CoreInit(USB_OTG_GlobalTypeDef *USBx, USB_OTG_CfgTypeDef cfg)
{
 8001acc:	b084      	sub	sp, #16
 8001ace:	b538      	push	{r3, r4, r5, lr}
 8001ad0:	ad05      	add	r5, sp, #20
 8001ad2:	e885 000e 	stmia.w	r5, {r1, r2, r3}
  if (cfg.phy_itface == USB_OTG_ULPI_PHY)
 8001ad6:	9b0a      	ldr	r3, [sp, #40]	; 0x28
 8001ad8:	2b01      	cmp	r3, #1
{
 8001ada:	4604      	mov	r4, r0
  if (cfg.phy_itface == USB_OTG_ULPI_PHY)
 8001adc:	d126      	bne.n	8001b2c <USB_CoreInit+0x60>
  {
    
    USBx->GCCFG &= ~(USB_OTG_GCCFG_PWRDWN);
 8001ade:	6b83      	ldr	r3, [r0, #56]	; 0x38
 8001ae0:	f423 3380 	bic.w	r3, r3, #65536	; 0x10000
 8001ae4:	6383      	str	r3, [r0, #56]	; 0x38

    /* Init The ULPI Interface */
    USBx->GUSBCFG &= ~(USB_OTG_GUSBCFG_TSDPS | USB_OTG_GUSBCFG_ULPIFSLS | USB_OTG_GUSBCFG_PHYSEL);
 8001ae6:	68c3      	ldr	r3, [r0, #12]
 8001ae8:	f423 0384 	bic.w	r3, r3, #4325376	; 0x420000
 8001aec:	f023 0340 	bic.w	r3, r3, #64	; 0x40
 8001af0:	60c3      	str	r3, [r0, #12]
   
    /* Select vbus source */
    USBx->GUSBCFG &= ~(USB_OTG_GUSBCFG_ULPIEVBUSD | USB_OTG_GUSBCFG_ULPIEVBUSI);
 8001af2:	68c3      	ldr	r3, [r0, #12]
 8001af4:	f423 1340 	bic.w	r3, r3, #3145728	; 0x300000
 8001af8:	60c3      	str	r3, [r0, #12]
    if(cfg.use_external_vbus == 1U)
 8001afa:	9b11      	ldr	r3, [sp, #68]	; 0x44
 8001afc:	2b01      	cmp	r3, #1
    {
      USBx->GUSBCFG |= USB_OTG_GUSBCFG_ULPIEVBUSD;
 8001afe:	bf02      	ittt	eq
 8001b00:	68c3      	ldreq	r3, [r0, #12]
 8001b02:	f443 1380 	orreq.w	r3, r3, #1048576	; 0x100000
 8001b06:	60c3      	streq	r3, [r0, #12]
    }
    /* Reset after a PHY select  */
    USB_CoreReset(USBx); 
 8001b08:	f000 fbe6 	bl	80022d8 <USB_CoreReset>
    
    /* Deactivate the power down*/
    USBx->GCCFG = USB_OTG_GCCFG_PWRDWN;
  }
 
  if(cfg.dma_enable == ENABLE)
 8001b0c:	9b08      	ldr	r3, [sp, #32]
 8001b0e:	2b01      	cmp	r3, #1
 8001b10:	d107      	bne.n	8001b22 <USB_CoreInit+0x56>
  {
    USBx->GAHBCFG |= USB_OTG_GAHBCFG_HBSTLEN_2;
 8001b12:	68a3      	ldr	r3, [r4, #8]
 8001b14:	f043 0306 	orr.w	r3, r3, #6
 8001b18:	60a3      	str	r3, [r4, #8]
    USBx->GAHBCFG |= USB_OTG_GAHBCFG_DMAEN;
 8001b1a:	68a3      	ldr	r3, [r4, #8]
 8001b1c:	f043 0320 	orr.w	r3, r3, #32
 8001b20:	60a3      	str	r3, [r4, #8]
  }  

  return HAL_OK;
}
 8001b22:	e8bd 4038 	ldmia.w	sp!, {r3, r4, r5, lr}
 8001b26:	2000      	movs	r0, #0
 8001b28:	b004      	add	sp, #16
 8001b2a:	4770      	bx	lr
    USBx->GUSBCFG |= USB_OTG_GUSBCFG_PHYSEL;
 8001b2c:	68c3      	ldr	r3, [r0, #12]
 8001b2e:	f043 0340 	orr.w	r3, r3, #64	; 0x40
 8001b32:	60c3      	str	r3, [r0, #12]
    USB_CoreReset(USBx);
 8001b34:	f000 fbd0 	bl	80022d8 <USB_CoreReset>
    USBx->GCCFG = USB_OTG_GCCFG_PWRDWN;
 8001b38:	f44f 3380 	mov.w	r3, #65536	; 0x10000
 8001b3c:	63a3      	str	r3, [r4, #56]	; 0x38
 8001b3e:	e7e5      	b.n	8001b0c <USB_CoreInit+0x40>

08001b40 <USB_EnableGlobalInt>:
  * @param  USBx  Selected device
  * @retval HAL status
  */
HAL_StatusTypeDef USB_EnableGlobalInt(USB_OTG_GlobalTypeDef *USBx)
{
  USBx->GAHBCFG |= USB_OTG_GAHBCFG_GINT;
 8001b40:	6883      	ldr	r3, [r0, #8]
 8001b42:	f043 0301 	orr.w	r3, r3, #1
 8001b46:	6083      	str	r3, [r0, #8]
  return HAL_OK;
}
 8001b48:	2000      	movs	r0, #0
 8001b4a:	4770      	bx	lr

08001b4c <USB_DisableGlobalInt>:
  * @param  USBx  Selected device
  * @retval HAL status
*/
HAL_StatusTypeDef USB_DisableGlobalInt(USB_OTG_GlobalTypeDef *USBx)
{
  USBx->GAHBCFG &= ~USB_OTG_GAHBCFG_GINT;
 8001b4c:	6883      	ldr	r3, [r0, #8]
 8001b4e:	f023 0301 	bic.w	r3, r3, #1
 8001b52:	6083      	str	r3, [r0, #8]
  return HAL_OK;
}
 8001b54:	2000      	movs	r0, #0
 8001b56:	4770      	bx	lr

08001b58 <USB_SetCurrentMode>:
  *            @arg USB_OTG_HOST_MODE: Host mode
  *            @arg USB_OTG_DRD_MODE: Dual Role Device mode  
  * @retval HAL status
  */
HAL_StatusTypeDef USB_SetCurrentMode(USB_OTG_GlobalTypeDef *USBx , USB_OTG_ModeTypeDef mode)
{
 8001b58:	b508      	push	{r3, lr}
  USBx->GUSBCFG &= ~(USB_OTG_GUSBCFG_FHMOD | USB_OTG_GUSBCFG_FDMOD); 
 8001b5a:	68c3      	ldr	r3, [r0, #12]
  
  if ( mode == USB_OTG_HOST_MODE)
 8001b5c:	2901      	cmp	r1, #1
  USBx->GUSBCFG &= ~(USB_OTG_GUSBCFG_FHMOD | USB_OTG_GUSBCFG_FDMOD); 
 8001b5e:	f023 43c0 	bic.w	r3, r3, #1610612736	; 0x60000000
 8001b62:	60c3      	str	r3, [r0, #12]
  if ( mode == USB_OTG_HOST_MODE)
 8001b64:	d108      	bne.n	8001b78 <USB_SetCurrentMode+0x20>
  {
    USBx->GUSBCFG |= USB_OTG_GUSBCFG_FHMOD; 
 8001b66:	68c3      	ldr	r3, [r0, #12]
 8001b68:	f043 5300 	orr.w	r3, r3, #536870912	; 0x20000000
 8001b6c:	60c3      	str	r3, [r0, #12]
  }
  else if ( mode == USB_OTG_DEVICE_MODE)
  {
    USBx->GUSBCFG |= USB_OTG_GUSBCFG_FDMOD; 
  }
  HAL_Delay(50U);
 8001b6e:	2032      	movs	r0, #50	; 0x32
 8001b70:	f7fe fd20 	bl	80005b4 <HAL_Delay>
  
  return HAL_OK;
}
 8001b74:	2000      	movs	r0, #0
 8001b76:	bd08      	pop	{r3, pc}
  else if ( mode == USB_OTG_DEVICE_MODE)
 8001b78:	2900      	cmp	r1, #0
 8001b7a:	d1f8      	bne.n	8001b6e <USB_SetCurrentMode+0x16>
    USBx->GUSBCFG |= USB_OTG_GUSBCFG_FDMOD; 
 8001b7c:	68c3      	ldr	r3, [r0, #12]
 8001b7e:	f043 4380 	orr.w	r3, r3, #1073741824	; 0x40000000
 8001b82:	60c3      	str	r3, [r0, #12]
 8001b84:	e7f3      	b.n	8001b6e <USB_SetCurrentMode+0x16>
	...

08001b88 <USB_DevInit>:
  * @param  cfg   pointer to a USB_OTG_CfgTypeDef structure that contains
  *         the configuration information for the specified USBx peripheral.
  * @retval HAL status
  */
HAL_StatusTypeDef USB_DevInit (USB_OTG_GlobalTypeDef *USBx, USB_OTG_CfgTypeDef cfg)
{
 8001b88:	b084      	sub	sp, #16
 8001b8a:	e92d 41f0 	stmdb	sp!, {r4, r5, r6, r7, r8, lr}
 8001b8e:	4604      	mov	r4, r0
 8001b90:	a807      	add	r0, sp, #28
 8001b92:	e880 000e 	stmia.w	r0, {r1, r2, r3}
  uint32_t i = 0U;

  /*Activate VBUS Sensing B */
#if defined(STM32F446xx) || defined(STM32F469xx) || defined(STM32F479xx) || defined(STM32F412Zx) || defined(STM32F412Vx) || \
    defined(STM32F412Rx) || defined(STM32F412Cx) || defined(STM32F413xx) || defined(STM32F423xx)
  USBx->GCCFG |= USB_OTG_GCCFG_VBDEN;
 8001b96:	6ba3      	ldr	r3, [r4, #56]	; 0x38
 8001b98:	9e11      	ldr	r6, [sp, #68]	; 0x44
 8001b9a:	9f0a      	ldr	r7, [sp, #40]	; 0x28
 8001b9c:	f443 1300 	orr.w	r3, r3, #2097152	; 0x200000
 8001ba0:	4688      	mov	r8, r1
 8001ba2:	63a3      	str	r3, [r4, #56]	; 0x38
  
  if (cfg.vbus_sensing_enable == 0U)
 8001ba4:	b95e      	cbnz	r6, 8001bbe <USB_DevInit+0x36>
  {
    /* Deactivate VBUS Sensing B */
    USBx->GCCFG &= ~USB_OTG_GCCFG_VBDEN;
 8001ba6:	6ba3      	ldr	r3, [r4, #56]	; 0x38
 8001ba8:	f423 1300 	bic.w	r3, r3, #2097152	; 0x200000
 8001bac:	63a3      	str	r3, [r4, #56]	; 0x38
    
    /* B-peripheral session valid override enable*/ 
    USBx->GOTGCTL |= USB_OTG_GOTGCTL_BVALOEN;
 8001bae:	6823      	ldr	r3, [r4, #0]
 8001bb0:	f043 0340 	orr.w	r3, r3, #64	; 0x40
 8001bb4:	6023      	str	r3, [r4, #0]
    USBx->GOTGCTL |= USB_OTG_GOTGCTL_BVALOVAL;
 8001bb6:	6823      	ldr	r3, [r4, #0]
 8001bb8:	f043 0380 	orr.w	r3, r3, #128	; 0x80
 8001bbc:	6023      	str	r3, [r4, #0]
    USBx->GCCFG |= USB_OTG_GCCFG_VBUSBSEN;
  }
#endif /* STM32F446xx || STM32F469xx || STM32F479xx || STM32F412Zx || STM32F412Rx || STM32F412Vx || STM32F412Cx || STM32F413xx || STM32F423xx  */
  
  /* Restart the Phy Clock */
  USBx_PCGCCTL = 0U;
 8001bbe:	2300      	movs	r3, #0
 8001bc0:	f8c4 3e00 	str.w	r3, [r4, #3584]	; 0xe00
  
  /* Device mode configuration */
  USBx_DEVICE->DCFG |= DCFG_FRAME_INTERVAL_80;
 8001bc4:	f8d4 3800 	ldr.w	r3, [r4, #2048]	; 0x800
 8001bc8:	f8c4 3800 	str.w	r3, [r4, #2048]	; 0x800
  
  if(cfg.phy_itface  == USB_OTG_ULPI_PHY)
 8001bcc:	9b0c      	ldr	r3, [sp, #48]	; 0x30
 8001bce:	2b01      	cmp	r3, #1
  USBx_DEVICE->DCFG |= DCFG_FRAME_INTERVAL_80;
 8001bd0:	f504 6500 	add.w	r5, r4, #2048	; 0x800
  if(cfg.phy_itface  == USB_OTG_ULPI_PHY)
 8001bd4:	d15a      	bne.n	8001c8c <USB_DevInit+0x104>
  {
    if(cfg.speed == USB_OTG_SPEED_HIGH)
 8001bd6:	9909      	ldr	r1, [sp, #36]	; 0x24
 8001bd8:	b919      	cbnz	r1, 8001be2 <USB_DevInit+0x5a>
    }
  }
  else
  {
    /* Set Full speed phy */
    USB_SetDevSpeed (USBx , USB_OTG_SPEED_FULL);
 8001bda:	4620      	mov	r0, r4
 8001bdc:	f000 f89a 	bl	8001d14 <USB_SetDevSpeed>
 8001be0:	e003      	b.n	8001bea <USB_DevInit+0x62>
      USB_SetDevSpeed (USBx , USB_OTG_SPEED_HIGH_IN_FULL);
 8001be2:	4619      	mov	r1, r3
 8001be4:	4620      	mov	r0, r4
 8001be6:	f000 f895 	bl	8001d14 <USB_SetDevSpeed>
  }

  /* Flush the FIFOs */
  USB_FlushTxFifo(USBx , 0x10U); /* all Tx FIFOs */
 8001bea:	2110      	movs	r1, #16
 8001bec:	4620      	mov	r0, r4
 8001bee:	f000 f86f 	bl	8001cd0 <USB_FlushTxFifo>
  USB_FlushRxFifo(USBx);
 8001bf2:	4620      	mov	r0, r4
 8001bf4:	f000 f87e 	bl	8001cf4 <USB_FlushRxFifo>
  
  /* Clear all pending Device Interrupts */
  USBx_DEVICE->DIEPMSK = 0U;
 8001bf8:	2300      	movs	r3, #0
  USBx_DEVICE->DOEPMSK = 0U;
  USBx_DEVICE->DAINT = 0xFFFFFFFFU;
 8001bfa:	f04f 32ff 	mov.w	r2, #4294967295
  USBx_DEVICE->DIEPMSK = 0U;
 8001bfe:	612b      	str	r3, [r5, #16]
 8001c00:	4619      	mov	r1, r3
  USBx_DEVICE->DOEPMSK = 0U;
 8001c02:	616b      	str	r3, [r5, #20]
  
  for (i = 0U; i < cfg.dev_endpoints; i++)
  {
    if ((USBx_INEP(i)->DIEPCTL & USB_OTG_DIEPCTL_EPENA) == USB_OTG_DIEPCTL_EPENA)
    {
      USBx_INEP(i)->DIEPCTL = (USB_OTG_DIEPCTL_EPDIS | USB_OTG_DIEPCTL_SNAK);
 8001c04:	f04f 4090 	mov.w	r0, #1207959552	; 0x48000000
  USBx_DEVICE->DAINT = 0xFFFFFFFFU;
 8001c08:	61aa      	str	r2, [r5, #24]
    {
      USBx_INEP(i)->DIEPCTL = 0U;
    }
    
    USBx_INEP(i)->DIEPTSIZ = 0U;
    USBx_INEP(i)->DIEPINT  = 0xFFU;
 8001c0a:	f04f 0eff 	mov.w	lr, #255	; 0xff
  USBx_DEVICE->DAINTMSK = 0U;
 8001c0e:	61eb      	str	r3, [r5, #28]
 8001c10:	f504 6210 	add.w	r2, r4, #2304	; 0x900
  for (i = 0U; i < cfg.dev_endpoints; i++)
 8001c14:	4543      	cmp	r3, r8
 8001c16:	d13b      	bne.n	8001c90 <USB_DevInit+0x108>
 8001c18:	2100      	movs	r1, #0
 8001c1a:	f504 6230 	add.w	r2, r4, #2816	; 0xb00
 8001c1e:	4608      	mov	r0, r1
  
  for (i = 0U; i < cfg.dev_endpoints; i++)
  {
    if ((USBx_OUTEP(i)->DOEPCTL & USB_OTG_DOEPCTL_EPENA) == USB_OTG_DOEPCTL_EPENA)
    {
      USBx_OUTEP(i)->DOEPCTL = (USB_OTG_DOEPCTL_EPDIS | USB_OTG_DOEPCTL_SNAK);
 8001c20:	f04f 4e90 	mov.w	lr, #1207959552	; 0x48000000
    {
      USBx_OUTEP(i)->DOEPCTL = 0U;
    }
    
    USBx_OUTEP(i)->DOEPTSIZ = 0U;
    USBx_OUTEP(i)->DOEPINT  = 0xFFU;
 8001c24:	f04f 0cff 	mov.w	ip, #255	; 0xff
  for (i = 0U; i < cfg.dev_endpoints; i++)
 8001c28:	428b      	cmp	r3, r1
 8001c2a:	d13e      	bne.n	8001caa <USB_DevInit+0x122>
  }
  
  USBx_DEVICE->DIEPMSK &= ~(USB_OTG_DIEPMSK_TXFURM);
 8001c2c:	692b      	ldr	r3, [r5, #16]
  
  if (cfg.dma_enable == 1U)
 8001c2e:	2f01      	cmp	r7, #1
  USBx_DEVICE->DIEPMSK &= ~(USB_OTG_DIEPMSK_TXFURM);
 8001c30:	f423 7380 	bic.w	r3, r3, #256	; 0x100
 8001c34:	612b      	str	r3, [r5, #16]
  if (cfg.dma_enable == 1U)
 8001c36:	d108      	bne.n	8001c4a <USB_DevInit+0xc2>
  {
    /*Set threshold parameters */
    USBx_DEVICE->DTHRCTL = (USB_OTG_DTHRCTL_TXTHRLEN_6 | USB_OTG_DTHRCTL_RXTHRLEN_6);
 8001c38:	4b23      	ldr	r3, [pc, #140]	; (8001cc8 <USB_DevInit+0x140>)
 8001c3a:	632b      	str	r3, [r5, #48]	; 0x30
    USBx_DEVICE->DTHRCTL |= (USB_OTG_DTHRCTL_RXTHREN | USB_OTG_DTHRCTL_ISOTHREN | USB_OTG_DTHRCTL_NONISOTHREN);
 8001c3c:	6b2b      	ldr	r3, [r5, #48]	; 0x30
 8001c3e:	f443 3380 	orr.w	r3, r3, #65536	; 0x10000
 8001c42:	f043 0303 	orr.w	r3, r3, #3
 8001c46:	632b      	str	r3, [r5, #48]	; 0x30
    
    i= USBx_DEVICE->DTHRCTL;
 8001c48:	6b2b      	ldr	r3, [r5, #48]	; 0x30
  }
  
  /* Disable all interrupts. */
  USBx->GINTMSK = 0U;
 8001c4a:	2300      	movs	r3, #0
 8001c4c:	61a3      	str	r3, [r4, #24]
  
  /* Clear any pending interrupts */
  USBx->GINTSTS = 0xBFFFFFFFU;
 8001c4e:	f06f 4380 	mvn.w	r3, #1073741824	; 0x40000000
 8001c52:	6163      	str	r3, [r4, #20]

  /* Enable the common interrupts */
  if (cfg.dma_enable == DISABLE)
 8001c54:	b91f      	cbnz	r7, 8001c5e <USB_DevInit+0xd6>
  {
    USBx->GINTMSK |= USB_OTG_GINTMSK_RXFLVLM; 
 8001c56:	69a3      	ldr	r3, [r4, #24]
 8001c58:	f043 0310 	orr.w	r3, r3, #16
 8001c5c:	61a3      	str	r3, [r4, #24]
  }
  
  /* Enable interrupts matching to the Device mode ONLY */
  USBx->GINTMSK |= (USB_OTG_GINTMSK_USBSUSPM | USB_OTG_GINTMSK_USBRST |\
 8001c5e:	69a2      	ldr	r2, [r4, #24]
 8001c60:	4b1a      	ldr	r3, [pc, #104]	; (8001ccc <USB_DevInit+0x144>)
 8001c62:	4313      	orrs	r3, r2
 8001c64:	61a3      	str	r3, [r4, #24]
                    USB_OTG_GINTMSK_ENUMDNEM | USB_OTG_GINTMSK_IEPINT |\
                    USB_OTG_GINTMSK_OEPINT   | USB_OTG_GINTMSK_IISOIXFRM|\
                    USB_OTG_GINTMSK_PXFRM_IISOOXFRM | USB_OTG_GINTMSK_WUIM);
  
  if(cfg.Sof_enable)
 8001c66:	9b0d      	ldr	r3, [sp, #52]	; 0x34
 8001c68:	b11b      	cbz	r3, 8001c72 <USB_DevInit+0xea>
  {
    USBx->GINTMSK |= USB_OTG_GINTMSK_SOFM;
 8001c6a:	69a3      	ldr	r3, [r4, #24]
 8001c6c:	f043 0308 	orr.w	r3, r3, #8
 8001c70:	61a3      	str	r3, [r4, #24]
  }

  if (cfg.vbus_sensing_enable == ENABLE)
 8001c72:	2e01      	cmp	r6, #1
  {
    USBx->GINTMSK |= (USB_OTG_GINTMSK_SRQIM | USB_OTG_GINTMSK_OTGINT); 
 8001c74:	bf01      	itttt	eq
 8001c76:	69a3      	ldreq	r3, [r4, #24]
 8001c78:	f043 4380 	orreq.w	r3, r3, #1073741824	; 0x40000000
 8001c7c:	f043 0304 	orreq.w	r3, r3, #4
 8001c80:	61a3      	streq	r3, [r4, #24]
  }
  
  return HAL_OK;
}
 8001c82:	e8bd 41f0 	ldmia.w	sp!, {r4, r5, r6, r7, r8, lr}
 8001c86:	2000      	movs	r0, #0
 8001c88:	b004      	add	sp, #16
 8001c8a:	4770      	bx	lr
    USB_SetDevSpeed (USBx , USB_OTG_SPEED_FULL);
 8001c8c:	2103      	movs	r1, #3
 8001c8e:	e7a4      	b.n	8001bda <USB_DevInit+0x52>
    if ((USBx_INEP(i)->DIEPCTL & USB_OTG_DIEPCTL_EPENA) == USB_OTG_DIEPCTL_EPENA)
 8001c90:	f8d2 c000 	ldr.w	ip, [r2]
 8001c94:	f1bc 0f00 	cmp.w	ip, #0
      USBx_INEP(i)->DIEPCTL = (USB_OTG_DIEPCTL_EPDIS | USB_OTG_DIEPCTL_SNAK);
 8001c98:	bfb4      	ite	lt
 8001c9a:	6010      	strlt	r0, [r2, #0]
      USBx_INEP(i)->DIEPCTL = 0U;
 8001c9c:	6011      	strge	r1, [r2, #0]
  for (i = 0U; i < cfg.dev_endpoints; i++)
 8001c9e:	3301      	adds	r3, #1
    USBx_INEP(i)->DIEPTSIZ = 0U;
 8001ca0:	6111      	str	r1, [r2, #16]
    USBx_INEP(i)->DIEPINT  = 0xFFU;
 8001ca2:	f8c2 e008 	str.w	lr, [r2, #8]
 8001ca6:	3220      	adds	r2, #32
 8001ca8:	e7b4      	b.n	8001c14 <USB_DevInit+0x8c>
    if ((USBx_OUTEP(i)->DOEPCTL & USB_OTG_DOEPCTL_EPENA) == USB_OTG_DOEPCTL_EPENA)
 8001caa:	f8d2 8000 	ldr.w	r8, [r2]
 8001cae:	f1b8 0f00 	cmp.w	r8, #0
      USBx_OUTEP(i)->DOEPCTL = (USB_OTG_DOEPCTL_EPDIS | USB_OTG_DOEPCTL_SNAK);
 8001cb2:	bfb4      	ite	lt
 8001cb4:	f8c2 e000 	strlt.w	lr, [r2]
      USBx_OUTEP(i)->DOEPCTL = 0U;
 8001cb8:	6010      	strge	r0, [r2, #0]
  for (i = 0U; i < cfg.dev_endpoints; i++)
 8001cba:	3101      	adds	r1, #1
    USBx_OUTEP(i)->DOEPTSIZ = 0U;
 8001cbc:	6110      	str	r0, [r2, #16]
    USBx_OUTEP(i)->DOEPINT  = 0xFFU;
 8001cbe:	f8c2 c008 	str.w	ip, [r2, #8]
 8001cc2:	3220      	adds	r2, #32
 8001cc4:	e7b0      	b.n	8001c28 <USB_DevInit+0xa0>
 8001cc6:	bf00      	nop
 8001cc8:	00800100 	.word	0x00800100
 8001ccc:	803c3800 	.word	0x803c3800

08001cd0 <USB_FlushTxFifo>:
  */
HAL_StatusTypeDef USB_FlushTxFifo (USB_OTG_GlobalTypeDef *USBx, uint32_t num )
{
  uint32_t count = 0;
  
  USBx->GRSTCTL = ( USB_OTG_GRSTCTL_TXFFLSH |(uint32_t)( num << 6)); 
 8001cd0:	0189      	lsls	r1, r1, #6
 8001cd2:	f041 0120 	orr.w	r1, r1, #32
 8001cd6:	4a06      	ldr	r2, [pc, #24]	; (8001cf0 <USB_FlushTxFifo+0x20>)
 8001cd8:	6101      	str	r1, [r0, #16]
  
  do
  {
    if (++count > 200000)
 8001cda:	3a01      	subs	r2, #1
 8001cdc:	d005      	beq.n	8001cea <USB_FlushTxFifo+0x1a>
    {
      return HAL_TIMEOUT;
    }
  }
  while ((USBx->GRSTCTL & USB_OTG_GRSTCTL_TXFFLSH) == USB_OTG_GRSTCTL_TXFFLSH);
 8001cde:	6903      	ldr	r3, [r0, #16]
 8001ce0:	f013 0320 	ands.w	r3, r3, #32
 8001ce4:	d1f9      	bne.n	8001cda <USB_FlushTxFifo+0xa>
  
  return HAL_OK;
 8001ce6:	4618      	mov	r0, r3
 8001ce8:	4770      	bx	lr
      return HAL_TIMEOUT;
 8001cea:	2003      	movs	r0, #3
}
 8001cec:	4770      	bx	lr
 8001cee:	bf00      	nop
 8001cf0:	00030d41 	.word	0x00030d41

08001cf4 <USB_FlushRxFifo>:
  */
HAL_StatusTypeDef USB_FlushRxFifo(USB_OTG_GlobalTypeDef *USBx)
{
  uint32_t count = 0;
  
  USBx->GRSTCTL = USB_OTG_GRSTCTL_RXFFLSH;
 8001cf4:	2310      	movs	r3, #16
 8001cf6:	4a06      	ldr	r2, [pc, #24]	; (8001d10 <USB_FlushRxFifo+0x1c>)
 8001cf8:	6103      	str	r3, [r0, #16]
  
  do
  {
    if (++count > 200000)
 8001cfa:	3a01      	subs	r2, #1
 8001cfc:	d005      	beq.n	8001d0a <USB_FlushRxFifo+0x16>
    {
      return HAL_TIMEOUT;
    }
  }
  while ((USBx->GRSTCTL & USB_OTG_GRSTCTL_RXFFLSH) == USB_OTG_GRSTCTL_RXFFLSH);
 8001cfe:	6903      	ldr	r3, [r0, #16]
 8001d00:	f013 0310 	ands.w	r3, r3, #16
 8001d04:	d1f9      	bne.n	8001cfa <USB_FlushRxFifo+0x6>
  
  return HAL_OK;
 8001d06:	4618      	mov	r0, r3
 8001d08:	4770      	bx	lr
      return HAL_TIMEOUT;
 8001d0a:	2003      	movs	r0, #3
}
 8001d0c:	4770      	bx	lr
 8001d0e:	bf00      	nop
 8001d10:	00030d41 	.word	0x00030d41

08001d14 <USB_SetDevSpeed>:
  *            @arg USB_OTG_SPEED_LOW: Low speed mode
  * @retval  Hal status
  */
HAL_StatusTypeDef USB_SetDevSpeed(USB_OTG_GlobalTypeDef *USBx , uint8_t speed)
{
  USBx_DEVICE->DCFG |= speed;
 8001d14:	f8d0 3800 	ldr.w	r3, [r0, #2048]	; 0x800
 8001d18:	4319      	orrs	r1, r3
 8001d1a:	f8c0 1800 	str.w	r1, [r0, #2048]	; 0x800
  return HAL_OK;
}
 8001d1e:	2000      	movs	r0, #0
 8001d20:	4770      	bx	lr

08001d22 <USB_GetDevSpeed>:
  */
uint8_t USB_GetDevSpeed(USB_OTG_GlobalTypeDef *USBx)
{
  uint8_t speed = 0U;
  
  if((USBx_DEVICE->DSTS & USB_OTG_DSTS_ENUMSPD) == DSTS_ENUMSPD_HS_PHY_30MHZ_OR_60MHZ)
 8001d22:	f500 6200 	add.w	r2, r0, #2048	; 0x800
 8001d26:	f8d0 0808 	ldr.w	r0, [r0, #2056]	; 0x808
 8001d2a:	f010 0006 	ands.w	r0, r0, #6
 8001d2e:	d012      	beq.n	8001d56 <USB_GetDevSpeed+0x34>
  {
    speed = USB_OTG_SPEED_HIGH;
  }
  else if (((USBx_DEVICE->DSTS & USB_OTG_DSTS_ENUMSPD) == DSTS_ENUMSPD_FS_PHY_30MHZ_OR_60MHZ)||
 8001d30:	6893      	ldr	r3, [r2, #8]
 8001d32:	f003 0306 	and.w	r3, r3, #6
 8001d36:	2b02      	cmp	r3, #2
 8001d38:	d00c      	beq.n	8001d54 <USB_GetDevSpeed+0x32>
           ((USBx_DEVICE->DSTS & USB_OTG_DSTS_ENUMSPD) == DSTS_ENUMSPD_FS_PHY_48MHZ))
 8001d3a:	6893      	ldr	r3, [r2, #8]
 8001d3c:	f003 0306 	and.w	r3, r3, #6
  else if (((USBx_DEVICE->DSTS & USB_OTG_DSTS_ENUMSPD) == DSTS_ENUMSPD_FS_PHY_30MHZ_OR_60MHZ)||
 8001d40:	2b06      	cmp	r3, #6
 8001d42:	d007      	beq.n	8001d54 <USB_GetDevSpeed+0x32>
  {
    speed = USB_OTG_SPEED_FULL;
  }
  else if((USBx_DEVICE->DSTS & USB_OTG_DSTS_ENUMSPD) == DSTS_ENUMSPD_LS_PHY_6MHZ)
 8001d44:	6893      	ldr	r3, [r2, #8]
 8001d46:	f003 0306 	and.w	r3, r3, #6
 8001d4a:	2b04      	cmp	r3, #4
  {
    speed = USB_OTG_SPEED_LOW;
 8001d4c:	bf14      	ite	ne
 8001d4e:	2000      	movne	r0, #0
 8001d50:	2002      	moveq	r0, #2
 8001d52:	4770      	bx	lr
    speed = USB_OTG_SPEED_FULL;
 8001d54:	2003      	movs	r0, #3
  }
  
  return speed;
}
 8001d56:	4770      	bx	lr

08001d58 <USB_ActivateEndpoint>:
  * @param  USBx  Selected device
  * @param  ep pointer to endpoint structure
  * @retval HAL status
  */
HAL_StatusTypeDef USB_ActivateEndpoint(USB_OTG_GlobalTypeDef *USBx, USB_OTG_EPTypeDef *ep)
{
 8001d58:	b530      	push	{r4, r5, lr}
  if (ep->is_in == 1U)
 8001d5a:	784b      	ldrb	r3, [r1, #1]
 8001d5c:	780c      	ldrb	r4, [r1, #0]
  {
   USBx_DEVICE->DAINTMSK |= USB_OTG_DAINTMSK_IEPM & ((1U << (ep->num)));
 8001d5e:	f8d0 581c 	ldr.w	r5, [r0, #2076]	; 0x81c
 8001d62:	f500 6200 	add.w	r2, r0, #2048	; 0x800
  if (ep->is_in == 1U)
 8001d66:	2b01      	cmp	r3, #1
 8001d68:	d11b      	bne.n	8001da2 <USB_ActivateEndpoint+0x4a>
   USBx_DEVICE->DAINTMSK |= USB_OTG_DAINTMSK_IEPM & ((1U << (ep->num)));
 8001d6a:	40a3      	lsls	r3, r4
 8001d6c:	b29b      	uxth	r3, r3
 8001d6e:	432b      	orrs	r3, r5
   
    if (((USBx_INEP(ep->num)->DIEPCTL) & USB_OTG_DIEPCTL_USBAEP) == 0U)
 8001d70:	f500 6010 	add.w	r0, r0, #2304	; 0x900
   USBx_DEVICE->DAINTMSK |= USB_OTG_DAINTMSK_IEPM & ((1U << (ep->num)));
 8001d74:	61d3      	str	r3, [r2, #28]
    if (((USBx_INEP(ep->num)->DIEPCTL) & USB_OTG_DIEPCTL_USBAEP) == 0U)
 8001d76:	eb00 1344 	add.w	r3, r0, r4, lsl #5
 8001d7a:	681a      	ldr	r2, [r3, #0]
 8001d7c:	0412      	lsls	r2, r2, #16
 8001d7e:	d40e      	bmi.n	8001d9e <USB_ActivateEndpoint+0x46>
    {
      USBx_INEP(ep->num)->DIEPCTL |= ((ep->maxpacket & USB_OTG_DIEPCTL_MPSIZ ) | (ep->type << 18U) |\
 8001d80:	688a      	ldr	r2, [r1, #8]
 8001d82:	78c8      	ldrb	r0, [r1, #3]
 8001d84:	681d      	ldr	r5, [r3, #0]
 8001d86:	f3c2 020a 	ubfx	r2, r2, #0, #11
 8001d8a:	f042 5280 	orr.w	r2, r2, #268435456	; 0x10000000
 8001d8e:	f442 4200 	orr.w	r2, r2, #32768	; 0x8000
 8001d92:	ea42 4080 	orr.w	r0, r2, r0, lsl #18
 8001d96:	ea40 5084 	orr.w	r0, r0, r4, lsl #22
 8001d9a:	4328      	orrs	r0, r5
 8001d9c:	6018      	str	r0, [r3, #0]
      USBx_OUTEP(ep->num)->DOEPCTL |= ((ep->maxpacket & USB_OTG_DOEPCTL_MPSIZ ) | (ep->type << 18U) |\
       (USB_OTG_DIEPCTL_SD0PID_SEVNFRM)| (USB_OTG_DOEPCTL_USBAEP));
    } 
  }
  return HAL_OK;
}
 8001d9e:	2000      	movs	r0, #0
 8001da0:	bd30      	pop	{r4, r5, pc}
     USBx_DEVICE->DAINTMSK |= USB_OTG_DAINTMSK_OEPM & ((1U << (ep->num)) << 16U);
 8001da2:	f44f 3380 	mov.w	r3, #65536	; 0x10000
 8001da6:	40a3      	lsls	r3, r4
    if (((USBx_OUTEP(ep->num)->DOEPCTL) & USB_OTG_DOEPCTL_USBAEP) == 0U)
 8001da8:	f500 6030 	add.w	r0, r0, #2816	; 0xb00
     USBx_DEVICE->DAINTMSK |= USB_OTG_DAINTMSK_OEPM & ((1U << (ep->num)) << 16U);
 8001dac:	432b      	orrs	r3, r5
    if (((USBx_OUTEP(ep->num)->DOEPCTL) & USB_OTG_DOEPCTL_USBAEP) == 0U)
 8001dae:	eb00 1044 	add.w	r0, r0, r4, lsl #5
     USBx_DEVICE->DAINTMSK |= USB_OTG_DAINTMSK_OEPM & ((1U << (ep->num)) << 16U);
 8001db2:	61d3      	str	r3, [r2, #28]
    if (((USBx_OUTEP(ep->num)->DOEPCTL) & USB_OTG_DOEPCTL_USBAEP) == 0U)
 8001db4:	6803      	ldr	r3, [r0, #0]
 8001db6:	041b      	lsls	r3, r3, #16
 8001db8:	d4f1      	bmi.n	8001d9e <USB_ActivateEndpoint+0x46>
      USBx_OUTEP(ep->num)->DOEPCTL |= ((ep->maxpacket & USB_OTG_DOEPCTL_MPSIZ ) | (ep->type << 18U) |\
 8001dba:	688b      	ldr	r3, [r1, #8]
 8001dbc:	78c9      	ldrb	r1, [r1, #3]
 8001dbe:	6802      	ldr	r2, [r0, #0]
 8001dc0:	f3c3 030a 	ubfx	r3, r3, #0, #11
 8001dc4:	f043 5380 	orr.w	r3, r3, #268435456	; 0x10000000
 8001dc8:	f443 4300 	orr.w	r3, r3, #32768	; 0x8000
 8001dcc:	ea43 4381 	orr.w	r3, r3, r1, lsl #18
 8001dd0:	4313      	orrs	r3, r2
 8001dd2:	6003      	str	r3, [r0, #0]
 8001dd4:	e7e3      	b.n	8001d9e <USB_ActivateEndpoint+0x46>

08001dd6 <USB_DeactivateEndpoint>:
 8001dd6:	f000 b801 	b.w	8001ddc <USB_DeactivateDedicatedEndpoint>
	...

08001ddc <USB_DeactivateDedicatedEndpoint>:
  * @param  USBx  Selected device
  * @param  ep pointer to endpoint structure
  * @retval HAL status
  */
HAL_StatusTypeDef USB_DeactivateDedicatedEndpoint(USB_OTG_GlobalTypeDef *USBx, USB_OTG_EPTypeDef *ep)
{
 8001ddc:	b570      	push	{r4, r5, r6, lr}
  uint32_t count = 0U;
  
  /* Disable the IN endpoint */
  if (ep->is_in == 1U)
 8001dde:	784b      	ldrb	r3, [r1, #1]
 8001de0:	2b01      	cmp	r3, #1
{
 8001de2:	460e      	mov	r6, r1
 8001de4:	4605      	mov	r5, r0
 8001de6:	7809      	ldrb	r1, [r1, #0]
 8001de8:	f04f 0320 	mov.w	r3, #32
  if (ep->is_in == 1U)
 8001dec:	d126      	bne.n	8001e3c <USB_DeactivateDedicatedEndpoint+0x60>
  {
    USBx_INEP(ep->num)->DIEPCTL &= ~USB_OTG_DIEPCTL_USBAEP;  
 8001dee:	f500 6210 	add.w	r2, r0, #2304	; 0x900
 8001df2:	fb13 2301 	smlabb	r3, r3, r1, r2
 8001df6:	681a      	ldr	r2, [r3, #0]
 8001df8:	f422 4200 	bic.w	r2, r2, #32768	; 0x8000
 8001dfc:	601a      	str	r2, [r3, #0]
    
    /* sets the NAK bit for the IN endpoint */
    USBx_INEP(ep->num)->DIEPCTL = USB_OTG_DIEPCTL_SNAK;
 8001dfe:	f04f 6200 	mov.w	r2, #134217728	; 0x8000000
 8001e02:	601a      	str	r2, [r3, #0]
    
    /* Disable IN endpoint */
    USBx_INEP(ep->num)->DIEPCTL = USB_OTG_DIEPCTL_EPDIS;
 8001e04:	f04f 4280 	mov.w	r2, #1073741824	; 0x40000000
 8001e08:	601a      	str	r2, [r3, #0]
 8001e0a:	4a1f      	ldr	r2, [pc, #124]	; (8001e88 <USB_DeactivateDedicatedEndpoint+0xac>)
    
    do
    {
      if (++count > 200000U)
 8001e0c:	3a01      	subs	r2, #1
 8001e0e:	d101      	bne.n	8001e14 <USB_DeactivateDedicatedEndpoint+0x38>
      {
        return HAL_TIMEOUT;
 8001e10:	2003      	movs	r0, #3
 8001e12:	bd70      	pop	{r4, r5, r6, pc}
      }
    }
    
    /*Wait for  EPDISD endpoint disabled interrupt*/ 
    while ((USBx_INEP(ep->num)->DIEPINT & USB_OTG_DIEPCTL_EPDIS) == USB_OTG_DIEPCTL_EPDIS);
 8001e14:	689c      	ldr	r4, [r3, #8]
 8001e16:	f014 4480 	ands.w	r4, r4, #1073741824	; 0x40000000
 8001e1a:	d1f7      	bne.n	8001e0c <USB_DeactivateDedicatedEndpoint+0x30>
    
    
    /* Flush any data remaining in the TxFIFO */
    USB_FlushTxFifo(USBx , 0x10U);
 8001e1c:	2110      	movs	r1, #16
 8001e1e:	4628      	mov	r0, r5
 8001e20:	f7ff ff56 	bl	8001cd0 <USB_FlushTxFifo>
    
    /* Disable endpoint interrupts */
    USBx_DEVICE->DAINTMSK &= ~(USB_OTG_DAINTMSK_IEPM & ((1U << (ep->num))));   
 8001e24:	7831      	ldrb	r1, [r6, #0]
 8001e26:	f8d5 281c 	ldr.w	r2, [r5, #2076]	; 0x81c
 8001e2a:	2301      	movs	r3, #1
 8001e2c:	408b      	lsls	r3, r1
 8001e2e:	b29b      	uxth	r3, r3
 8001e30:	ea22 0303 	bic.w	r3, r2, r3
 8001e34:	f8c5 381c 	str.w	r3, [r5, #2076]	; 0x81c
    USBx_DEVICE->DCTL |= USB_OTG_DCTL_CGONAK;
    
    /* Disable endpoint interrupts */
    USBx_DEVICE->DAINTMSK &= ~(USB_OTG_DAINTMSK_OEPM & ((1U << (ep->num)) << 16U));         
  }
  return HAL_OK;
 8001e38:	4620      	mov	r0, r4
 8001e3a:	bd70      	pop	{r4, r5, r6, pc}
    USBx_OUTEP(ep->num)->DOEPCTL &= ~USB_OTG_DOEPCTL_USBAEP;  
 8001e3c:	f500 6230 	add.w	r2, r0, #2816	; 0xb00
 8001e40:	fb13 2301 	smlabb	r3, r3, r1, r2
 8001e44:	681a      	ldr	r2, [r3, #0]
 8001e46:	f422 4200 	bic.w	r2, r2, #32768	; 0x8000
 8001e4a:	601a      	str	r2, [r3, #0]
    USBx_OUTEP(ep->num)->DOEPCTL = USB_OTG_DOEPCTL_SNAK;
 8001e4c:	f04f 6200 	mov.w	r2, #134217728	; 0x8000000
 8001e50:	601a      	str	r2, [r3, #0]
    USBx_OUTEP(ep->num)->DOEPCTL = USB_OTG_DOEPCTL_EPDIS;
 8001e52:	f04f 4280 	mov.w	r2, #1073741824	; 0x40000000
 8001e56:	601a      	str	r2, [r3, #0]
 8001e58:	4a0b      	ldr	r2, [pc, #44]	; (8001e88 <USB_DeactivateDedicatedEndpoint+0xac>)
      if (++count > 200000U)
 8001e5a:	3a01      	subs	r2, #1
 8001e5c:	d0d8      	beq.n	8001e10 <USB_DeactivateDedicatedEndpoint+0x34>
    while ((USBx_OUTEP(ep->num)->DOEPINT & USB_OTG_DOEPINT_OTEPDIS) == USB_OTG_DOEPINT_OTEPDIS);
 8001e5e:	6898      	ldr	r0, [r3, #8]
 8001e60:	f010 0010 	ands.w	r0, r0, #16
 8001e64:	d1f9      	bne.n	8001e5a <USB_DeactivateDedicatedEndpoint+0x7e>
    USBx_DEVICE->DCTL |= USB_OTG_DCTL_CGONAK;
 8001e66:	f8d5 3804 	ldr.w	r3, [r5, #2052]	; 0x804
 8001e6a:	f443 6380 	orr.w	r3, r3, #1024	; 0x400
 8001e6e:	f8c5 3804 	str.w	r3, [r5, #2052]	; 0x804
    USBx_DEVICE->DAINTMSK &= ~(USB_OTG_DAINTMSK_OEPM & ((1U << (ep->num)) << 16U));         
 8001e72:	f8d5 381c 	ldr.w	r3, [r5, #2076]	; 0x81c
 8001e76:	f44f 3280 	mov.w	r2, #65536	; 0x10000
 8001e7a:	408a      	lsls	r2, r1
 8001e7c:	ea23 0302 	bic.w	r3, r3, r2
 8001e80:	f8c5 381c 	str.w	r3, [r5, #2076]	; 0x81c

}
 8001e84:	bd70      	pop	{r4, r5, r6, pc}
 8001e86:	bf00      	nop
 8001e88:	00030d41 	.word	0x00030d41

08001e8c <USB_EPStartXfer>:
  *           0 : DMA feature not used 
  *           1 : DMA feature used  
  * @retval HAL status
  */
HAL_StatusTypeDef USB_EPStartXfer(USB_OTG_GlobalTypeDef *USBx , USB_OTG_EPTypeDef *ep, uint8_t dma)
{
 8001e8c:	b5f7      	push	{r0, r1, r2, r4, r5, r6, r7, lr}
  uint16_t pktcnt = 0U;
  
  /* IN endpoint */
  if (ep->is_in == 1U)
 8001e8e:	784b      	ldrb	r3, [r1, #1]
 8001e90:	780c      	ldrb	r4, [r1, #0]
 8001e92:	2b01      	cmp	r3, #1
 8001e94:	694b      	ldr	r3, [r1, #20]
 8001e96:	d177      	bne.n	8001f88 <USB_EPStartXfer+0xfc>
 8001e98:	2620      	movs	r6, #32
 8001e9a:	f500 6510 	add.w	r5, r0, #2304	; 0x900
  {
    /* Zero Length Packet? */
    if (ep->xfer_len == 0U)
    {
      USBx_INEP(ep->num)->DIEPTSIZ &= ~(USB_OTG_DIEPTSIZ_PKTCNT); 
 8001e9e:	fb16 5404 	smlabb	r4, r6, r4, r5
 8001ea2:	6926      	ldr	r6, [r4, #16]
    if (ep->xfer_len == 0U)
 8001ea4:	2b00      	cmp	r3, #0
 8001ea6:	d138      	bne.n	8001f1a <USB_EPStartXfer+0x8e>
      USBx_INEP(ep->num)->DIEPTSIZ &= ~(USB_OTG_DIEPTSIZ_PKTCNT); 
 8001ea8:	f026 56ff 	bic.w	r6, r6, #534773760	; 0x1fe00000
 8001eac:	f426 16c0 	bic.w	r6, r6, #1572864	; 0x180000
 8001eb0:	6126      	str	r6, [r4, #16]
      USBx_INEP(ep->num)->DIEPTSIZ |= (USB_OTG_DIEPTSIZ_PKTCNT & (1U << 19U)) ;
 8001eb2:	6926      	ldr	r6, [r4, #16]
 8001eb4:	f446 2600 	orr.w	r6, r6, #524288	; 0x80000
 8001eb8:	6126      	str	r6, [r4, #16]
      USBx_INEP(ep->num)->DIEPTSIZ &= ~(USB_OTG_DIEPTSIZ_XFRSIZ); 
 8001eba:	6926      	ldr	r6, [r4, #16]
 8001ebc:	0cf6      	lsrs	r6, r6, #19
 8001ebe:	04f6      	lsls	r6, r6, #19
 8001ec0:	6126      	str	r6, [r4, #16]
        USBx_INEP(ep->num)->DIEPTSIZ &= ~(USB_OTG_DIEPTSIZ_MULCNT); 
        USBx_INEP(ep->num)->DIEPTSIZ |= (USB_OTG_DIEPTSIZ_MULCNT & (1U << 29U)); 
      }       
    }

    if (dma == 1U)
 8001ec2:	2a01      	cmp	r2, #1
 8001ec4:	d150      	bne.n	8001f68 <USB_EPStartXfer+0xdc>
    {
      USBx_INEP(ep->num)->DIEPDMA = (uint32_t)(ep->dma_addr);
 8001ec6:	780c      	ldrb	r4, [r1, #0]
 8001ec8:	690e      	ldr	r6, [r1, #16]
 8001eca:	eb05 1444 	add.w	r4, r5, r4, lsl #5
 8001ece:	6166      	str	r6, [r4, #20]
          USBx_DEVICE->DIEPEMPMSK |= 1U << ep->num;
        }
      }
    }

    if (ep->type == EP_TYPE_ISOC)
 8001ed0:	78ce      	ldrb	r6, [r1, #3]
 8001ed2:	2e01      	cmp	r6, #1
 8001ed4:	d10f      	bne.n	8001ef6 <USB_EPStartXfer+0x6a>
    {
      if ((USBx_DEVICE->DSTS & ( 1U << 8U )) == 0U)
 8001ed6:	f8d0 4808 	ldr.w	r4, [r0, #2056]	; 0x808
 8001eda:	780f      	ldrb	r7, [r1, #0]
 8001edc:	f414 7f80 	tst.w	r4, #256	; 0x100
 8001ee0:	f04f 0420 	mov.w	r4, #32
      {
        USBx_INEP(ep->num)->DIEPCTL |= USB_OTG_DIEPCTL_SODDFRM;
 8001ee4:	fb14 5407 	smlabb	r4, r4, r7, r5
 8001ee8:	6827      	ldr	r7, [r4, #0]
 8001eea:	bf0c      	ite	eq
 8001eec:	f047 5700 	orreq.w	r7, r7, #536870912	; 0x20000000
      }
      else
      {
        USBx_INEP(ep->num)->DIEPCTL |= USB_OTG_DIEPCTL_SD0PID_SEVNFRM;
 8001ef0:	f047 5780 	orrne.w	r7, r7, #268435456	; 0x10000000
 8001ef4:	6027      	str	r7, [r4, #0]
      }
    } 
    
    /* EP enable, IN data in FIFO */
    USBx_INEP(ep->num)->DIEPCTL |= (USB_OTG_DIEPCTL_CNAK | USB_OTG_DIEPCTL_EPENA);
 8001ef6:	780f      	ldrb	r7, [r1, #0]
 8001ef8:	eb05 1547 	add.w	r5, r5, r7, lsl #5
    
    if (ep->type == EP_TYPE_ISOC)
 8001efc:	2e01      	cmp	r6, #1
    USBx_INEP(ep->num)->DIEPCTL |= (USB_OTG_DIEPCTL_CNAK | USB_OTG_DIEPCTL_EPENA);
 8001efe:	682c      	ldr	r4, [r5, #0]
 8001f00:	f044 4404 	orr.w	r4, r4, #2214592512	; 0x84000000
 8001f04:	602c      	str	r4, [r5, #0]
    if (ep->type == EP_TYPE_ISOC)
 8001f06:	d105      	bne.n	8001f14 <USB_EPStartXfer+0x88>
    {
      USB_WritePacket(USBx, ep->xfer_buff, ep->num, ep->xfer_len, dma);   
 8001f08:	9200      	str	r2, [sp, #0]
 8001f0a:	b29b      	uxth	r3, r3
 8001f0c:	463a      	mov	r2, r7
 8001f0e:	68c9      	ldr	r1, [r1, #12]
 8001f10:	f000 f8ef 	bl	80020f2 <USB_WritePacket>
    }
    /* EP enable */
    USBx_OUTEP(ep->num)->DOEPCTL |= (USB_OTG_DOEPCTL_CNAK | USB_OTG_DOEPCTL_EPENA);
  }
  return HAL_OK;
}
 8001f14:	2000      	movs	r0, #0
 8001f16:	b003      	add	sp, #12
 8001f18:	bdf0      	pop	{r4, r5, r6, r7, pc}
      USBx_INEP(ep->num)->DIEPTSIZ &= ~(USB_OTG_DIEPTSIZ_XFRSIZ);
 8001f1a:	0cf6      	lsrs	r6, r6, #19
 8001f1c:	04f6      	lsls	r6, r6, #19
 8001f1e:	6126      	str	r6, [r4, #16]
      USBx_INEP(ep->num)->DIEPTSIZ &= ~(USB_OTG_DIEPTSIZ_PKTCNT); 
 8001f20:	6926      	ldr	r6, [r4, #16]
      USBx_INEP(ep->num)->DIEPTSIZ |= (USB_OTG_DIEPTSIZ_PKTCNT & (((ep->xfer_len + ep->maxpacket -1U)/ ep->maxpacket) << 19U)) ;
 8001f22:	688f      	ldr	r7, [r1, #8]
      USBx_INEP(ep->num)->DIEPTSIZ &= ~(USB_OTG_DIEPTSIZ_PKTCNT); 
 8001f24:	f026 56ff 	bic.w	r6, r6, #534773760	; 0x1fe00000
 8001f28:	f426 16c0 	bic.w	r6, r6, #1572864	; 0x180000
 8001f2c:	6126      	str	r6, [r4, #16]
      USBx_INEP(ep->num)->DIEPTSIZ |= (USB_OTG_DIEPTSIZ_PKTCNT & (((ep->xfer_len + ep->maxpacket -1U)/ ep->maxpacket) << 19U)) ;
 8001f2e:	19de      	adds	r6, r3, r7
 8001f30:	3e01      	subs	r6, #1
 8001f32:	fbb6 f7f7 	udiv	r7, r6, r7
 8001f36:	4e37      	ldr	r6, [pc, #220]	; (8002014 <USB_EPStartXfer+0x188>)
 8001f38:	f8d4 e010 	ldr.w	lr, [r4, #16]
 8001f3c:	ea06 46c7 	and.w	r6, r6, r7, lsl #19
 8001f40:	ea46 060e 	orr.w	r6, r6, lr
 8001f44:	6126      	str	r6, [r4, #16]
      USBx_INEP(ep->num)->DIEPTSIZ |= (USB_OTG_DIEPTSIZ_XFRSIZ & ep->xfer_len); 
 8001f46:	6927      	ldr	r7, [r4, #16]
 8001f48:	f3c3 0612 	ubfx	r6, r3, #0, #19
 8001f4c:	433e      	orrs	r6, r7
 8001f4e:	6126      	str	r6, [r4, #16]
      if (ep->type == EP_TYPE_ISOC)
 8001f50:	78ce      	ldrb	r6, [r1, #3]
 8001f52:	2e01      	cmp	r6, #1
 8001f54:	d15a      	bne.n	800200c <USB_EPStartXfer+0x180>
        USBx_INEP(ep->num)->DIEPTSIZ &= ~(USB_OTG_DIEPTSIZ_MULCNT); 
 8001f56:	6926      	ldr	r6, [r4, #16]
 8001f58:	f026 46c0 	bic.w	r6, r6, #1610612736	; 0x60000000
 8001f5c:	6126      	str	r6, [r4, #16]
        USBx_INEP(ep->num)->DIEPTSIZ |= (USB_OTG_DIEPTSIZ_MULCNT & (1U << 29U)); 
 8001f5e:	6926      	ldr	r6, [r4, #16]
 8001f60:	f046 5600 	orr.w	r6, r6, #536870912	; 0x20000000
 8001f64:	6126      	str	r6, [r4, #16]
 8001f66:	e7ac      	b.n	8001ec2 <USB_EPStartXfer+0x36>
      if (ep->type != EP_TYPE_ISOC)
 8001f68:	78ce      	ldrb	r6, [r1, #3]
 8001f6a:	2e01      	cmp	r6, #1
 8001f6c:	d0b3      	beq.n	8001ed6 <USB_EPStartXfer+0x4a>
        if (ep->xfer_len > 0U)
 8001f6e:	2b00      	cmp	r3, #0
 8001f70:	d0ae      	beq.n	8001ed0 <USB_EPStartXfer+0x44>
          USBx_DEVICE->DIEPEMPMSK |= 1U << ep->num;
 8001f72:	f891 e000 	ldrb.w	lr, [r1]
 8001f76:	f8d0 7834 	ldr.w	r7, [r0, #2100]	; 0x834
 8001f7a:	2401      	movs	r4, #1
 8001f7c:	fa04 f40e 	lsl.w	r4, r4, lr
 8001f80:	433c      	orrs	r4, r7
 8001f82:	f8c0 4834 	str.w	r4, [r0, #2100]	; 0x834
 8001f86:	e7a3      	b.n	8001ed0 <USB_EPStartXfer+0x44>
    USBx_OUTEP(ep->num)->DOEPTSIZ &= ~(USB_OTG_DOEPTSIZ_XFRSIZ); 
 8001f88:	f500 6530 	add.w	r5, r0, #2816	; 0xb00
 8001f8c:	eb05 1444 	add.w	r4, r5, r4, lsl #5
 8001f90:	6925      	ldr	r5, [r4, #16]
 8001f92:	0ced      	lsrs	r5, r5, #19
 8001f94:	04ed      	lsls	r5, r5, #19
 8001f96:	6125      	str	r5, [r4, #16]
    USBx_OUTEP(ep->num)->DOEPTSIZ &= ~(USB_OTG_DOEPTSIZ_PKTCNT); 
 8001f98:	6925      	ldr	r5, [r4, #16]
 8001f9a:	f025 55ff 	bic.w	r5, r5, #534773760	; 0x1fe00000
 8001f9e:	f425 15c0 	bic.w	r5, r5, #1572864	; 0x180000
 8001fa2:	6125      	str	r5, [r4, #16]
 8001fa4:	688d      	ldr	r5, [r1, #8]
    if (ep->xfer_len == 0U)
 8001fa6:	b9fb      	cbnz	r3, 8001fe8 <USB_EPStartXfer+0x15c>
      USBx_OUTEP(ep->num)->DOEPTSIZ |= (USB_OTG_DOEPTSIZ_XFRSIZ & ep->maxpacket);
 8001fa8:	6923      	ldr	r3, [r4, #16]
 8001faa:	f3c5 0512 	ubfx	r5, r5, #0, #19
 8001fae:	431d      	orrs	r5, r3
 8001fb0:	6125      	str	r5, [r4, #16]
      USBx_OUTEP(ep->num)->DOEPTSIZ |= (USB_OTG_DOEPTSIZ_PKTCNT & (1U << 19U));
 8001fb2:	6923      	ldr	r3, [r4, #16]
 8001fb4:	f443 2300 	orr.w	r3, r3, #524288	; 0x80000
 8001fb8:	6123      	str	r3, [r4, #16]
    if (dma == 1U)
 8001fba:	2a01      	cmp	r2, #1
      USBx_OUTEP(ep->num)->DOEPDMA = (uint32_t)ep->xfer_buff;
 8001fbc:	bf04      	itt	eq
 8001fbe:	68cb      	ldreq	r3, [r1, #12]
 8001fc0:	6163      	streq	r3, [r4, #20]
    if (ep->type == EP_TYPE_ISOC)
 8001fc2:	78cb      	ldrb	r3, [r1, #3]
 8001fc4:	2b01      	cmp	r3, #1
 8001fc6:	d10a      	bne.n	8001fde <USB_EPStartXfer+0x152>
      if ((USBx_DEVICE->DSTS & ( 1U << 8U )) == 0U)
 8001fc8:	f8d0 3808 	ldr.w	r3, [r0, #2056]	; 0x808
 8001fcc:	f413 7f80 	tst.w	r3, #256	; 0x100
        USBx_OUTEP(ep->num)->DOEPCTL |= USB_OTG_DOEPCTL_SODDFRM;
 8001fd0:	6823      	ldr	r3, [r4, #0]
 8001fd2:	bf0c      	ite	eq
 8001fd4:	f043 5300 	orreq.w	r3, r3, #536870912	; 0x20000000
        USBx_OUTEP(ep->num)->DOEPCTL |= USB_OTG_DOEPCTL_SD0PID_SEVNFRM;
 8001fd8:	f043 5380 	orrne.w	r3, r3, #268435456	; 0x10000000
 8001fdc:	6023      	str	r3, [r4, #0]
    USBx_OUTEP(ep->num)->DOEPCTL |= (USB_OTG_DOEPCTL_CNAK | USB_OTG_DOEPCTL_EPENA);
 8001fde:	6823      	ldr	r3, [r4, #0]
 8001fe0:	f043 4304 	orr.w	r3, r3, #2214592512	; 0x84000000
 8001fe4:	6023      	str	r3, [r4, #0]
  return HAL_OK;
 8001fe6:	e795      	b.n	8001f14 <USB_EPStartXfer+0x88>
      USBx_OUTEP(ep->num)->DOEPTSIZ |= (USB_OTG_DOEPTSIZ_PKTCNT & (pktcnt << 19U));
 8001fe8:	4e0a      	ldr	r6, [pc, #40]	; (8002014 <USB_EPStartXfer+0x188>)
 8001fea:	6927      	ldr	r7, [r4, #16]
      pktcnt = (ep->xfer_len + ep->maxpacket -1U)/ ep->maxpacket; 
 8001fec:	442b      	add	r3, r5
 8001fee:	3b01      	subs	r3, #1
 8001ff0:	fbb3 f3f5 	udiv	r3, r3, r5
      USBx_OUTEP(ep->num)->DOEPTSIZ |= (USB_OTG_DOEPTSIZ_PKTCNT & (pktcnt << 19U));
 8001ff4:	ea06 46c3 	and.w	r6, r6, r3, lsl #19
 8001ff8:	433e      	orrs	r6, r7
 8001ffa:	6126      	str	r6, [r4, #16]
      USBx_OUTEP(ep->num)->DOEPTSIZ |= (USB_OTG_DOEPTSIZ_XFRSIZ & (ep->maxpacket * pktcnt));
 8001ffc:	b29b      	uxth	r3, r3
 8001ffe:	6926      	ldr	r6, [r4, #16]
 8002000:	435d      	muls	r5, r3
 8002002:	f3c5 0512 	ubfx	r5, r5, #0, #19
 8002006:	4335      	orrs	r5, r6
 8002008:	6125      	str	r5, [r4, #16]
 800200a:	e7d6      	b.n	8001fba <USB_EPStartXfer+0x12e>
    if (dma == 1U)
 800200c:	2a01      	cmp	r2, #1
 800200e:	d1ae      	bne.n	8001f6e <USB_EPStartXfer+0xe2>
 8002010:	e759      	b.n	8001ec6 <USB_EPStartXfer+0x3a>
 8002012:	bf00      	nop
 8002014:	1ff80000 	.word	0x1ff80000

08002018 <USB_EP0StartXfer>:
  * @retval HAL status
  */
HAL_StatusTypeDef USB_EP0StartXfer(USB_OTG_GlobalTypeDef *USBx , USB_OTG_EPTypeDef *ep, uint8_t dma)
{
  /* IN endpoint */
  if (ep->is_in == 1U)
 8002018:	784b      	ldrb	r3, [r1, #1]
 800201a:	2b01      	cmp	r3, #1
{
 800201c:	b570      	push	{r4, r5, r6, lr}
 800201e:	780b      	ldrb	r3, [r1, #0]
 8002020:	694d      	ldr	r5, [r1, #20]
  if (ep->is_in == 1U)
 8002022:	d143      	bne.n	80020ac <USB_EP0StartXfer+0x94>
 8002024:	2420      	movs	r4, #32
 8002026:	f500 6610 	add.w	r6, r0, #2304	; 0x900
  {
    /* Zero Length Packet? */
    if (ep->xfer_len == 0U)
    {
      USBx_INEP(ep->num)->DIEPTSIZ &= ~(USB_OTG_DIEPTSIZ_PKTCNT); 
 800202a:	fb14 6303 	smlabb	r3, r4, r3, r6
 800202e:	691c      	ldr	r4, [r3, #16]
    if (ep->xfer_len == 0U)
 8002030:	b9cd      	cbnz	r5, 8002066 <USB_EP0StartXfer+0x4e>
      USBx_INEP(ep->num)->DIEPTSIZ &= ~(USB_OTG_DIEPTSIZ_PKTCNT); 
 8002032:	f024 54ff 	bic.w	r4, r4, #534773760	; 0x1fe00000
 8002036:	f424 14c0 	bic.w	r4, r4, #1572864	; 0x180000
 800203a:	611c      	str	r4, [r3, #16]
      USBx_INEP(ep->num)->DIEPTSIZ |= (USB_OTG_DIEPTSIZ_PKTCNT & (1U << 19U)) ;
 800203c:	691c      	ldr	r4, [r3, #16]
 800203e:	f444 2400 	orr.w	r4, r4, #524288	; 0x80000
 8002042:	611c      	str	r4, [r3, #16]
      USBx_INEP(ep->num)->DIEPTSIZ &= ~(USB_OTG_DIEPTSIZ_XFRSIZ); 
 8002044:	691c      	ldr	r4, [r3, #16]
 8002046:	0ce4      	lsrs	r4, r4, #19
 8002048:	04e4      	lsls	r4, r4, #19
 800204a:	611c      	str	r4, [r3, #16]
      USBx_INEP(ep->num)->DIEPTSIZ |= (USB_OTG_DIEPTSIZ_XFRSIZ & ep->xfer_len); 
    
    }
    
    /* EP enable, IN data in FIFO */
    USBx_INEP(ep->num)->DIEPCTL |= (USB_OTG_DIEPCTL_CNAK | USB_OTG_DIEPCTL_EPENA);     
 800204c:	780d      	ldrb	r5, [r1, #0]
 800204e:	eb06 1345 	add.w	r3, r6, r5, lsl #5
    
    if (dma == 1)
 8002052:	2a01      	cmp	r2, #1
    USBx_INEP(ep->num)->DIEPCTL |= (USB_OTG_DIEPCTL_CNAK | USB_OTG_DIEPCTL_EPENA);     
 8002054:	681c      	ldr	r4, [r3, #0]
 8002056:	f044 4404 	orr.w	r4, r4, #2214592512	; 0x84000000
 800205a:	601c      	str	r4, [r3, #0]
    if (dma == 1)
 800205c:	d11b      	bne.n	8002096 <USB_EP0StartXfer+0x7e>
    {
      USBx_INEP(ep->num)->DIEPDMA = (uint32_t)(ep->dma_addr);
 800205e:	690a      	ldr	r2, [r1, #16]
 8002060:	615a      	str	r2, [r3, #20]
    
    /* EP enable */
    USBx_OUTEP(ep->num)->DOEPCTL |= (USB_OTG_DOEPCTL_CNAK | USB_OTG_DOEPCTL_EPENA);    
  }
  return HAL_OK;
}
 8002062:	2000      	movs	r0, #0
 8002064:	bd70      	pop	{r4, r5, r6, pc}
      USBx_INEP(ep->num)->DIEPTSIZ &= ~(USB_OTG_DIEPTSIZ_XFRSIZ);
 8002066:	0ce4      	lsrs	r4, r4, #19
 8002068:	04e4      	lsls	r4, r4, #19
 800206a:	611c      	str	r4, [r3, #16]
      USBx_INEP(ep->num)->DIEPTSIZ &= ~(USB_OTG_DIEPTSIZ_PKTCNT); 
 800206c:	691c      	ldr	r4, [r3, #16]
 800206e:	f024 54ff 	bic.w	r4, r4, #534773760	; 0x1fe00000
 8002072:	f424 14c0 	bic.w	r4, r4, #1572864	; 0x180000
 8002076:	611c      	str	r4, [r3, #16]
      if(ep->xfer_len > ep->maxpacket)
 8002078:	688c      	ldr	r4, [r1, #8]
 800207a:	42a5      	cmp	r5, r4
        ep->xfer_len = ep->maxpacket;
 800207c:	bf88      	it	hi
 800207e:	614c      	strhi	r4, [r1, #20]
      USBx_INEP(ep->num)->DIEPTSIZ |= (USB_OTG_DIEPTSIZ_PKTCNT & (1U << 19U)) ;
 8002080:	691c      	ldr	r4, [r3, #16]
 8002082:	f444 2400 	orr.w	r4, r4, #524288	; 0x80000
 8002086:	611c      	str	r4, [r3, #16]
      USBx_INEP(ep->num)->DIEPTSIZ |= (USB_OTG_DIEPTSIZ_XFRSIZ & ep->xfer_len); 
 8002088:	694c      	ldr	r4, [r1, #20]
 800208a:	691d      	ldr	r5, [r3, #16]
 800208c:	f3c4 0412 	ubfx	r4, r4, #0, #19
 8002090:	432c      	orrs	r4, r5
 8002092:	611c      	str	r4, [r3, #16]
 8002094:	e7da      	b.n	800204c <USB_EP0StartXfer+0x34>
      if (ep->xfer_len > 0U)
 8002096:	694b      	ldr	r3, [r1, #20]
 8002098:	2b00      	cmp	r3, #0
 800209a:	d0e2      	beq.n	8002062 <USB_EP0StartXfer+0x4a>
        USBx_DEVICE->DIEPEMPMSK |= 1U << (ep->num);
 800209c:	f8d0 2834 	ldr.w	r2, [r0, #2100]	; 0x834
 80020a0:	2301      	movs	r3, #1
 80020a2:	40ab      	lsls	r3, r5
 80020a4:	4313      	orrs	r3, r2
 80020a6:	f8c0 3834 	str.w	r3, [r0, #2100]	; 0x834
 80020aa:	e7da      	b.n	8002062 <USB_EP0StartXfer+0x4a>
    USBx_OUTEP(ep->num)->DOEPTSIZ &= ~(USB_OTG_DOEPTSIZ_XFRSIZ); 
 80020ac:	f500 6030 	add.w	r0, r0, #2816	; 0xb00
 80020b0:	eb00 1043 	add.w	r0, r0, r3, lsl #5
 80020b4:	6903      	ldr	r3, [r0, #16]
 80020b6:	0cdb      	lsrs	r3, r3, #19
 80020b8:	04db      	lsls	r3, r3, #19
 80020ba:	6103      	str	r3, [r0, #16]
    USBx_OUTEP(ep->num)->DOEPTSIZ &= ~(USB_OTG_DOEPTSIZ_PKTCNT); 
 80020bc:	6903      	ldr	r3, [r0, #16]
 80020be:	f023 53ff 	bic.w	r3, r3, #534773760	; 0x1fe00000
 80020c2:	f423 13c0 	bic.w	r3, r3, #1572864	; 0x180000
 80020c6:	6103      	str	r3, [r0, #16]
 80020c8:	688b      	ldr	r3, [r1, #8]
    if (ep->xfer_len > 0U)
 80020ca:	b105      	cbz	r5, 80020ce <USB_EP0StartXfer+0xb6>
      ep->xfer_len = ep->maxpacket;
 80020cc:	614b      	str	r3, [r1, #20]
    USBx_OUTEP(ep->num)->DOEPTSIZ |= (USB_OTG_DOEPTSIZ_PKTCNT & (1U << 19U));
 80020ce:	6904      	ldr	r4, [r0, #16]
 80020d0:	f444 2400 	orr.w	r4, r4, #524288	; 0x80000
 80020d4:	6104      	str	r4, [r0, #16]
    USBx_OUTEP(ep->num)->DOEPTSIZ |= (USB_OTG_DOEPTSIZ_XFRSIZ & (ep->maxpacket)); 
 80020d6:	6904      	ldr	r4, [r0, #16]
 80020d8:	f3c3 0312 	ubfx	r3, r3, #0, #19
 80020dc:	4323      	orrs	r3, r4
    if (dma == 1U)
 80020de:	2a01      	cmp	r2, #1
    USBx_OUTEP(ep->num)->DOEPTSIZ |= (USB_OTG_DOEPTSIZ_XFRSIZ & (ep->maxpacket)); 
 80020e0:	6103      	str	r3, [r0, #16]
      USBx_OUTEP(ep->num)->DOEPDMA = (uint32_t)(ep->xfer_buff);
 80020e2:	bf04      	itt	eq
 80020e4:	68cb      	ldreq	r3, [r1, #12]
 80020e6:	6143      	streq	r3, [r0, #20]
    USBx_OUTEP(ep->num)->DOEPCTL |= (USB_OTG_DOEPCTL_CNAK | USB_OTG_DOEPCTL_EPENA);    
 80020e8:	6803      	ldr	r3, [r0, #0]
 80020ea:	f043 4304 	orr.w	r3, r3, #2214592512	; 0x84000000
 80020ee:	6003      	str	r3, [r0, #0]
 80020f0:	e7b7      	b.n	8002062 <USB_EP0StartXfer+0x4a>

080020f2 <USB_WritePacket>:
  *           0 : DMA feature not used 
  *           1 : DMA feature used  
  * @retval HAL status
  */
HAL_StatusTypeDef USB_WritePacket(USB_OTG_GlobalTypeDef *USBx, uint8_t *src, uint8_t ch_ep_num, uint16_t len, uint8_t dma)
{
 80020f2:	b510      	push	{r4, lr}
 80020f4:	f89d 4008 	ldrb.w	r4, [sp, #8]
  uint32_t count32b = 0U , i = 0U;
  
  if (dma == 0U)
 80020f8:	b94c      	cbnz	r4, 800210e <USB_WritePacket+0x1c>
  {
    count32b =  (len + 3U) / 4U;
 80020fa:	3303      	adds	r3, #3
    for (i = 0U; i < count32b; i++, src += 4U)
    {
      USBx_DFIFO(ch_ep_num) = *((__packed uint32_t *)src);
 80020fc:	f500 5080 	add.w	r0, r0, #4096	; 0x1000
 8002100:	f023 0303 	bic.w	r3, r3, #3
 8002104:	eb00 3202 	add.w	r2, r0, r2, lsl #12
 8002108:	440b      	add	r3, r1
    for (i = 0U; i < count32b; i++, src += 4U)
 800210a:	4299      	cmp	r1, r3
 800210c:	d101      	bne.n	8002112 <USB_WritePacket+0x20>
    }
  }
  return HAL_OK;
}
 800210e:	2000      	movs	r0, #0
 8002110:	bd10      	pop	{r4, pc}
      USBx_DFIFO(ch_ep_num) = *((__packed uint32_t *)src);
 8002112:	f851 0b04 	ldr.w	r0, [r1], #4
 8002116:	6010      	str	r0, [r2, #0]
 8002118:	e7f7      	b.n	800210a <USB_WritePacket+0x18>

0800211a <USB_ReadPacket>:
  * @retval pointer to destination buffer
  */
void *USB_ReadPacket(USB_OTG_GlobalTypeDef *USBx, uint8_t *dest, uint16_t len)
{
  uint32_t i=0U;
  uint32_t count32b = (len + 3U) / 4U;
 800211a:	3203      	adds	r2, #3
 800211c:	f022 0203 	bic.w	r2, r2, #3
 8002120:	440a      	add	r2, r1
  
  for ( i = 0U; i < count32b; i++, dest += 4U )
  {
    *(__packed uint32_t *)dest = USBx_DFIFO(0U);
 8002122:	f500 5080 	add.w	r0, r0, #4096	; 0x1000
  for ( i = 0U; i < count32b; i++, dest += 4U )
 8002126:	4291      	cmp	r1, r2
 8002128:	d101      	bne.n	800212e <USB_ReadPacket+0x14>
    
  }
  return ((void *)dest);
}
 800212a:	4608      	mov	r0, r1
 800212c:	4770      	bx	lr
    *(__packed uint32_t *)dest = USBx_DFIFO(0U);
 800212e:	6803      	ldr	r3, [r0, #0]
 8002130:	f841 3b04 	str.w	r3, [r1], #4
 8002134:	e7f7      	b.n	8002126 <USB_ReadPacket+0xc>

08002136 <USB_EPSetStall>:
  * @param  ep pointer to endpoint structure   
  * @retval HAL status
  */
HAL_StatusTypeDef USB_EPSetStall(USB_OTG_GlobalTypeDef *USBx , USB_OTG_EPTypeDef *ep)
{
  if (ep->is_in == 1U)
 8002136:	784b      	ldrb	r3, [r1, #1]
 8002138:	780a      	ldrb	r2, [r1, #0]
 800213a:	2b01      	cmp	r3, #1
 800213c:	f04f 0320 	mov.w	r3, #32
 8002140:	d10b      	bne.n	800215a <USB_EPSetStall+0x24>
  {
    if (((USBx_INEP(ep->num)->DIEPCTL) & USB_OTG_DIEPCTL_EPENA) == 0U)
 8002142:	f500 6010 	add.w	r0, r0, #2304	; 0x900
 8002146:	fb13 0002 	smlabb	r0, r3, r2, r0
 800214a:	6803      	ldr	r3, [r0, #0]
 800214c:	2b00      	cmp	r3, #0
 800214e:	db0b      	blt.n	8002168 <USB_EPSetStall+0x32>
  }
  else
  {
    if (((USBx_OUTEP(ep->num)->DOEPCTL) & USB_OTG_DOEPCTL_EPENA) == 0U)
    {
      USBx_OUTEP(ep->num)->DOEPCTL &= ~(USB_OTG_DOEPCTL_EPDIS); 
 8002150:	6803      	ldr	r3, [r0, #0]
 8002152:	f023 4380 	bic.w	r3, r3, #1073741824	; 0x40000000
 8002156:	6003      	str	r3, [r0, #0]
 8002158:	e006      	b.n	8002168 <USB_EPSetStall+0x32>
    if (((USBx_OUTEP(ep->num)->DOEPCTL) & USB_OTG_DOEPCTL_EPENA) == 0U)
 800215a:	f500 6030 	add.w	r0, r0, #2816	; 0xb00
 800215e:	fb13 0002 	smlabb	r0, r3, r2, r0
 8002162:	6803      	ldr	r3, [r0, #0]
 8002164:	2b00      	cmp	r3, #0
 8002166:	daf3      	bge.n	8002150 <USB_EPSetStall+0x1a>
    } 
    USBx_OUTEP(ep->num)->DOEPCTL |= USB_OTG_DOEPCTL_STALL;
 8002168:	6803      	ldr	r3, [r0, #0]
 800216a:	f443 1300 	orr.w	r3, r3, #2097152	; 0x200000
 800216e:	6003      	str	r3, [r0, #0]
  }
  return HAL_OK;
}
 8002170:	2000      	movs	r0, #0
 8002172:	4770      	bx	lr

08002174 <USB_EPClearStall>:
  * @param  ep pointer to endpoint structure   
  * @retval HAL status
  */
HAL_StatusTypeDef USB_EPClearStall(USB_OTG_GlobalTypeDef *USBx, USB_OTG_EPTypeDef *ep)
{
  if (ep->is_in == 1U)
 8002174:	784b      	ldrb	r3, [r1, #1]
 8002176:	780a      	ldrb	r2, [r1, #0]
 8002178:	2b01      	cmp	r3, #1
  {
    USBx_INEP(ep->num)->DIEPCTL &= ~USB_OTG_DIEPCTL_STALL;
 800217a:	bf0c      	ite	eq
 800217c:	f500 6010 	addeq.w	r0, r0, #2304	; 0x900
       USBx_INEP(ep->num)->DIEPCTL |= USB_OTG_DIEPCTL_SD0PID_SEVNFRM; /* DATA0 */
    }    
  }
  else
  {
    USBx_OUTEP(ep->num)->DOEPCTL &= ~USB_OTG_DOEPCTL_STALL;
 8002180:	f500 6030 	addne.w	r0, r0, #2816	; 0xb00
 8002184:	2320      	movs	r3, #32
 8002186:	fb13 0002 	smlabb	r0, r3, r2, r0
 800218a:	6803      	ldr	r3, [r0, #0]
 800218c:	f423 1300 	bic.w	r3, r3, #2097152	; 0x200000
 8002190:	6003      	str	r3, [r0, #0]
    if (ep->type == EP_TYPE_INTR || ep->type == EP_TYPE_BULK)
 8002192:	78cb      	ldrb	r3, [r1, #3]
 8002194:	3b02      	subs	r3, #2
 8002196:	2b01      	cmp	r3, #1
    {
      USBx_OUTEP(ep->num)->DOEPCTL |= USB_OTG_DOEPCTL_SD0PID_SEVNFRM; /* DATA0 */
 8002198:	bf9e      	ittt	ls
 800219a:	6803      	ldrls	r3, [r0, #0]
 800219c:	f043 5380 	orrls.w	r3, r3, #268435456	; 0x10000000
 80021a0:	6003      	strls	r3, [r0, #0]
    }    
  }
  return HAL_OK;
}
 80021a2:	2000      	movs	r0, #0
 80021a4:	4770      	bx	lr

080021a6 <USB_SetDevAddress>:
  *          This parameter can be a value from 0 to 255
  * @retval HAL status
  */
HAL_StatusTypeDef  USB_SetDevAddress (USB_OTG_GlobalTypeDef *USBx, uint8_t address)
{
  USBx_DEVICE->DCFG &= ~ (USB_OTG_DCFG_DAD);
 80021a6:	f8d0 3800 	ldr.w	r3, [r0, #2048]	; 0x800
 80021aa:	f423 63fe 	bic.w	r3, r3, #2032	; 0x7f0
 80021ae:	f8c0 3800 	str.w	r3, [r0, #2048]	; 0x800
  USBx_DEVICE->DCFG |= (address << 4U) & USB_OTG_DCFG_DAD ;
 80021b2:	f8d0 3800 	ldr.w	r3, [r0, #2048]	; 0x800
 80021b6:	0109      	lsls	r1, r1, #4
 80021b8:	f401 61fe 	and.w	r1, r1, #2032	; 0x7f0
 80021bc:	4319      	orrs	r1, r3
 80021be:	f8c0 1800 	str.w	r1, [r0, #2048]	; 0x800
  
  return HAL_OK;  
}
 80021c2:	2000      	movs	r0, #0
 80021c4:	4770      	bx	lr

080021c6 <USB_DevConnect>:
  * @brief  USB_DevConnect : Connect the USB device by enabling the pull-up/pull-down
  * @param  USBx  Selected device
  * @retval HAL status
  */
HAL_StatusTypeDef  USB_DevConnect (USB_OTG_GlobalTypeDef *USBx)
{
 80021c6:	b508      	push	{r3, lr}
  USBx_DEVICE->DCTL &= ~USB_OTG_DCTL_SDIS ;
 80021c8:	f8d0 3804 	ldr.w	r3, [r0, #2052]	; 0x804
 80021cc:	f023 0302 	bic.w	r3, r3, #2
 80021d0:	f8c0 3804 	str.w	r3, [r0, #2052]	; 0x804
  HAL_Delay(3U);
 80021d4:	2003      	movs	r0, #3
 80021d6:	f7fe f9ed 	bl	80005b4 <HAL_Delay>
  
  return HAL_OK;  
}
 80021da:	2000      	movs	r0, #0
 80021dc:	bd08      	pop	{r3, pc}

080021de <USB_DevDisconnect>:
  * @brief  USB_DevDisconnect : Disconnect the USB device by disabling the pull-up/pull-down
  * @param  USBx  Selected device
  * @retval HAL status
  */
HAL_StatusTypeDef  USB_DevDisconnect (USB_OTG_GlobalTypeDef *USBx)
{
 80021de:	b508      	push	{r3, lr}
  USBx_DEVICE->DCTL |= USB_OTG_DCTL_SDIS ;
 80021e0:	f8d0 3804 	ldr.w	r3, [r0, #2052]	; 0x804
 80021e4:	f043 0302 	orr.w	r3, r3, #2
 80021e8:	f8c0 3804 	str.w	r3, [r0, #2052]	; 0x804
  HAL_Delay(3U);
 80021ec:	2003      	movs	r0, #3
 80021ee:	f7fe f9e1 	bl	80005b4 <HAL_Delay>
  
  return HAL_OK;  
}
 80021f2:	2000      	movs	r0, #0
 80021f4:	bd08      	pop	{r3, pc}

080021f6 <USB_ReadInterrupts>:
  */
uint32_t  USB_ReadInterrupts (USB_OTG_GlobalTypeDef *USBx)
{
  uint32_t v = 0U;
  
  v = USBx->GINTSTS;
 80021f6:	6942      	ldr	r2, [r0, #20]
  v &= USBx->GINTMSK;
 80021f8:	6980      	ldr	r0, [r0, #24]
  return v;  
}
 80021fa:	4010      	ands	r0, r2
 80021fc:	4770      	bx	lr

080021fe <USB_ReadDevAllOutEpInterrupt>:
  * @retval HAL status
  */
uint32_t USB_ReadDevAllOutEpInterrupt (USB_OTG_GlobalTypeDef *USBx)
{
  uint32_t v;
  v  = USBx_DEVICE->DAINT;
 80021fe:	f8d0 3818 	ldr.w	r3, [r0, #2072]	; 0x818
 8002202:	f500 6000 	add.w	r0, r0, #2048	; 0x800
  v &= USBx_DEVICE->DAINTMSK;
 8002206:	69c0      	ldr	r0, [r0, #28]
 8002208:	4018      	ands	r0, r3
  return ((v & 0xffff0000U) >> 16U);
}
 800220a:	0c00      	lsrs	r0, r0, #16
 800220c:	4770      	bx	lr

0800220e <USB_ReadDevAllInEpInterrupt>:
  * @retval HAL status
  */
uint32_t USB_ReadDevAllInEpInterrupt (USB_OTG_GlobalTypeDef *USBx)
{
  uint32_t v;
  v  = USBx_DEVICE->DAINT;
 800220e:	f8d0 3818 	ldr.w	r3, [r0, #2072]	; 0x818
 8002212:	f500 6000 	add.w	r0, r0, #2048	; 0x800
  v &= USBx_DEVICE->DAINTMSK;
 8002216:	69c0      	ldr	r0, [r0, #28]
 8002218:	4018      	ands	r0, r3
  return ((v & 0xFFFFU));
}
 800221a:	b280      	uxth	r0, r0
 800221c:	4770      	bx	lr

0800221e <USB_ReadDevOutEPInterrupt>:
  * @retval Device OUT EP Interrupt register
  */
uint32_t USB_ReadDevOutEPInterrupt (USB_OTG_GlobalTypeDef *USBx , uint8_t epnum)
{
  uint32_t v;
  v  = USBx_OUTEP(epnum)->DOEPINT;
 800221e:	f500 6330 	add.w	r3, r0, #2816	; 0xb00
 8002222:	eb03 1141 	add.w	r1, r3, r1, lsl #5
  v &= USBx_DEVICE->DOEPMSK;
 8002226:	f500 6000 	add.w	r0, r0, #2048	; 0x800
  v  = USBx_OUTEP(epnum)->DOEPINT;
 800222a:	688a      	ldr	r2, [r1, #8]
  v &= USBx_DEVICE->DOEPMSK;
 800222c:	6940      	ldr	r0, [r0, #20]
  return v;
}
 800222e:	4010      	ands	r0, r2
 8002230:	4770      	bx	lr

08002232 <USB_ReadDevInEPInterrupt>:
  * @param  epnum  endpoint number
  *          This parameter can be a value from 0 to 15
  * @retval Device IN EP Interrupt register
  */
uint32_t USB_ReadDevInEPInterrupt (USB_OTG_GlobalTypeDef *USBx , uint8_t epnum)
{
 8002232:	b510      	push	{r4, lr}
  uint32_t v, msk, emp;
  
  msk = USBx_DEVICE->DIEPMSK;
 8002234:	f8d0 4810 	ldr.w	r4, [r0, #2064]	; 0x810
  emp = USBx_DEVICE->DIEPEMPMSK;
 8002238:	f8d0 3834 	ldr.w	r3, [r0, #2100]	; 0x834
  msk |= ((emp >> epnum) & 0x1U) << 7U;
  v = USBx_INEP(epnum)->DIEPINT & msk;
 800223c:	eb00 1041 	add.w	r0, r0, r1, lsl #5
  msk |= ((emp >> epnum) & 0x1U) << 7U;
 8002240:	40cb      	lsrs	r3, r1
  v = USBx_INEP(epnum)->DIEPINT & msk;
 8002242:	f500 6010 	add.w	r0, r0, #2304	; 0x900
  msk |= ((emp >> epnum) & 0x1U) << 7U;
 8002246:	01db      	lsls	r3, r3, #7
  v = USBx_INEP(epnum)->DIEPINT & msk;
 8002248:	6880      	ldr	r0, [r0, #8]
  msk |= ((emp >> epnum) & 0x1U) << 7U;
 800224a:	b2db      	uxtb	r3, r3
 800224c:	4323      	orrs	r3, r4
  return v;
}
 800224e:	4018      	ands	r0, r3
 8002250:	bd10      	pop	{r4, pc}

08002252 <USB_GetMode>:
  *           0 : Host 
  *           1 : Device
  */
uint32_t USB_GetMode(USB_OTG_GlobalTypeDef *USBx)
{
  return ((USBx->GINTSTS ) & 0x1U);
 8002252:	6940      	ldr	r0, [r0, #20]
}
 8002254:	f000 0001 	and.w	r0, r0, #1
 8002258:	4770      	bx	lr

0800225a <USB_ActivateSetup>:
  * @retval HAL status
  */
HAL_StatusTypeDef  USB_ActivateSetup (USB_OTG_GlobalTypeDef *USBx)
{
  /* Set the MPS of the IN EP based on the enumeration speed */
  USBx_INEP(0U)->DIEPCTL &= ~USB_OTG_DIEPCTL_MPSIZ;
 800225a:	f8d0 3900 	ldr.w	r3, [r0, #2304]	; 0x900
 800225e:	f423 63ff 	bic.w	r3, r3, #2040	; 0x7f8
 8002262:	f023 0307 	bic.w	r3, r3, #7
 8002266:	f8c0 3900 	str.w	r3, [r0, #2304]	; 0x900
  
  if((USBx_DEVICE->DSTS & USB_OTG_DSTS_ENUMSPD) == DSTS_ENUMSPD_LS_PHY_6MHZ)
 800226a:	f500 6300 	add.w	r3, r0, #2048	; 0x800
 800226e:	689a      	ldr	r2, [r3, #8]
 8002270:	f002 0206 	and.w	r2, r2, #6
 8002274:	2a04      	cmp	r2, #4
  {
    USBx_INEP(0U)->DIEPCTL |= 3U;
 8002276:	bf02      	ittt	eq
 8002278:	f8d0 2900 	ldreq.w	r2, [r0, #2304]	; 0x900
 800227c:	f042 0203 	orreq.w	r2, r2, #3
 8002280:	f8c0 2900 	streq.w	r2, [r0, #2304]	; 0x900
  }
  USBx_DEVICE->DCTL |= USB_OTG_DCTL_CGINAK;
 8002284:	685a      	ldr	r2, [r3, #4]
 8002286:	f442 7280 	orr.w	r2, r2, #256	; 0x100
 800228a:	605a      	str	r2, [r3, #4]

  return HAL_OK;
}
 800228c:	2000      	movs	r0, #0
 800228e:	4770      	bx	lr

08002290 <USB_EP0_OutStart>:
  *           1 : DMA feature used  
  * @param  psetup  pointer to setup packet
  * @retval HAL status
  */
HAL_StatusTypeDef USB_EP0_OutStart(USB_OTG_GlobalTypeDef *USBx, uint8_t dma, uint8_t *psetup)
{
 8002290:	b510      	push	{r4, lr}
  USBx_OUTEP(0U)->DOEPTSIZ = 0U;
 8002292:	2400      	movs	r4, #0
 8002294:	f8c0 4b10 	str.w	r4, [r0, #2832]	; 0xb10
  USBx_OUTEP(0U)->DOEPTSIZ |= (USB_OTG_DOEPTSIZ_PKTCNT & (1U << 19U)) ;
 8002298:	f8d0 4b10 	ldr.w	r4, [r0, #2832]	; 0xb10
 800229c:	f444 2400 	orr.w	r4, r4, #524288	; 0x80000
 80022a0:	f8c0 4b10 	str.w	r4, [r0, #2832]	; 0xb10
  USBx_OUTEP(0U)->DOEPTSIZ |= (3U * 8U);
 80022a4:	f8d0 4b10 	ldr.w	r4, [r0, #2832]	; 0xb10
 80022a8:	f044 0418 	orr.w	r4, r4, #24
 80022ac:	f8c0 4b10 	str.w	r4, [r0, #2832]	; 0xb10
  USBx_OUTEP(0U)->DOEPTSIZ |=  USB_OTG_DOEPTSIZ_STUPCNT;  
 80022b0:	f8d0 4b10 	ldr.w	r4, [r0, #2832]	; 0xb10
  
  if (dma == 1U)
 80022b4:	2901      	cmp	r1, #1
  USBx_OUTEP(0U)->DOEPTSIZ = 0U;
 80022b6:	f500 6330 	add.w	r3, r0, #2816	; 0xb00
  USBx_OUTEP(0U)->DOEPTSIZ |=  USB_OTG_DOEPTSIZ_STUPCNT;  
 80022ba:	f044 44c0 	orr.w	r4, r4, #1610612736	; 0x60000000
  {
    USBx_OUTEP(0U)->DOEPDMA = (uint32_t)psetup;
    /* EP enable */
    USBx_OUTEP(0U)->DOEPCTL = 0x80008000U;
 80022be:	bf08      	it	eq
 80022c0:	f04f 2380 	moveq.w	r3, #2147516416	; 0x80008000
  USBx_OUTEP(0U)->DOEPTSIZ |=  USB_OTG_DOEPTSIZ_STUPCNT;  
 80022c4:	f8c0 4b10 	str.w	r4, [r0, #2832]	; 0xb10
    USBx_OUTEP(0U)->DOEPDMA = (uint32_t)psetup;
 80022c8:	bf04      	itt	eq
 80022ca:	f8c0 2b14 	streq.w	r2, [r0, #2836]	; 0xb14
    USBx_OUTEP(0U)->DOEPCTL = 0x80008000U;
 80022ce:	f8c0 3b00 	streq.w	r3, [r0, #2816]	; 0xb00
  }
  
  return HAL_OK;  
}
 80022d2:	2000      	movs	r0, #0
 80022d4:	bd10      	pop	{r4, pc}
	...

080022d8 <USB_CoreReset>:
  * @brief  Reset the USB Core (needed after USB clock settings change)
  * @param  USBx  Selected device
  * @retval HAL status
  */
static HAL_StatusTypeDef USB_CoreReset(USB_OTG_GlobalTypeDef *USBx)
{
 80022d8:	4b0a      	ldr	r3, [pc, #40]	; (8002304 <USB_CoreReset+0x2c>)
  uint32_t count = 0U;

  /* Wait for AHB master IDLE state. */
  do
  {
    if (++count > 200000U)
 80022da:	3b01      	subs	r3, #1
 80022dc:	d101      	bne.n	80022e2 <USB_CoreReset+0xa>
    {
      return HAL_TIMEOUT;
 80022de:	2003      	movs	r0, #3
 80022e0:	4770      	bx	lr
    }
  }
  while ((USBx->GRSTCTL & USB_OTG_GRSTCTL_AHBIDL) == 0U);
 80022e2:	6902      	ldr	r2, [r0, #16]
 80022e4:	2a00      	cmp	r2, #0
 80022e6:	daf8      	bge.n	80022da <USB_CoreReset+0x2>
  
  /* Core Soft Reset */
  count = 0U;
  USBx->GRSTCTL |= USB_OTG_GRSTCTL_CSRST;
 80022e8:	6903      	ldr	r3, [r0, #16]
 80022ea:	4a06      	ldr	r2, [pc, #24]	; (8002304 <USB_CoreReset+0x2c>)
 80022ec:	f043 0301 	orr.w	r3, r3, #1
 80022f0:	6103      	str	r3, [r0, #16]

  do
  {
    if (++count > 200000U)
 80022f2:	3a01      	subs	r2, #1
 80022f4:	d0f3      	beq.n	80022de <USB_CoreReset+0x6>
    {
      return HAL_TIMEOUT;
    }
  }
  while ((USBx->GRSTCTL & USB_OTG_GRSTCTL_CSRST) == USB_OTG_GRSTCTL_CSRST);
 80022f6:	6903      	ldr	r3, [r0, #16]
 80022f8:	f013 0301 	ands.w	r3, r3, #1
 80022fc:	d1f9      	bne.n	80022f2 <USB_CoreReset+0x1a>
  
  return HAL_OK;
 80022fe:	4618      	mov	r0, r3
}
 8002300:	4770      	bx	lr
 8002302:	bf00      	nop
 8002304:	00030d41 	.word	0x00030d41

08002308 <USBD_HID_GetCfgDesc>:
  * @param  length : pointer data length
  * @retval pointer to descriptor buffer
  */
static uint8_t  *USBD_HID_GetCfgDesc (uint16_t *length)
{
  *length = sizeof (USBD_HID_CfgDesc);
 8002308:	2322      	movs	r3, #34	; 0x22
 800230a:	8003      	strh	r3, [r0, #0]
  return USBD_HID_CfgDesc;
}
 800230c:	4800      	ldr	r0, [pc, #0]	; (8002310 <USBD_HID_GetCfgDesc+0x8>)
 800230e:	4770      	bx	lr
 8002310:	200000fc 	.word	0x200000fc

08002314 <USBD_HID_DataIn>:
                              uint8_t epnum)
{
  
  /* Ensure that the FIFO is empty before a new transfer, this condition could 
  be caused by  a new transfer before the end of the previous transfer */
  ((USBD_HID_HandleTypeDef *)pdev->pClassData)->state = HID_IDLE;
 8002314:	f8d0 3218 	ldr.w	r3, [r0, #536]	; 0x218
 8002318:	2000      	movs	r0, #0
 800231a:	7318      	strb	r0, [r3, #12]
  return USBD_OK;
}
 800231c:	4770      	bx	lr
	...

08002320 <USBD_HID_GetDeviceQualifierDesc>:
* @param  length : pointer data length
* @retval pointer to descriptor buffer
*/
static uint8_t  *USBD_HID_GetDeviceQualifierDesc (uint16_t *length)
{
  *length = sizeof (USBD_HID_DeviceQualifierDesc);
 8002320:	230a      	movs	r3, #10
 8002322:	8003      	strh	r3, [r0, #0]
  return USBD_HID_DeviceQualifierDesc;
}
 8002324:	4800      	ldr	r0, [pc, #0]	; (8002328 <USBD_HID_GetDeviceQualifierDesc+0x8>)
 8002326:	4770      	bx	lr
 8002328:	2000012c 	.word	0x2000012c

0800232c <USBD_HID_Setup>:
{
 800232c:	b538      	push	{r3, r4, r5, lr}
  switch (req->bmRequest & USB_REQ_TYPE_MASK)
 800232e:	780c      	ldrb	r4, [r1, #0]
  USBD_HID_HandleTypeDef     *hhid = (USBD_HID_HandleTypeDef*) pdev->pClassData;
 8002330:	f8d0 3218 	ldr.w	r3, [r0, #536]	; 0x218
  switch (req->bmRequest & USB_REQ_TYPE_MASK)
 8002334:	f014 0460 	ands.w	r4, r4, #96	; 0x60
{
 8002338:	4605      	mov	r5, r0
  switch (req->bmRequest & USB_REQ_TYPE_MASK)
 800233a:	d023      	beq.n	8002384 <USBD_HID_Setup+0x58>
 800233c:	2c20      	cmp	r4, #32
 800233e:	d10c      	bne.n	800235a <USBD_HID_Setup+0x2e>
    switch (req->bRequest)
 8002340:	784a      	ldrb	r2, [r1, #1]
 8002342:	3a02      	subs	r2, #2
 8002344:	2a09      	cmp	r2, #9
 8002346:	d817      	bhi.n	8002378 <USBD_HID_Setup+0x4c>
 8002348:	e8df f002 	tbb	[pc, r2]
 800234c:	16160913 	.word	0x16160913
 8002350:	16161616 	.word	0x16161616
 8002354:	050f      	.short	0x050f
      hhid->Protocol = (uint8_t)(req->wValue);
 8002356:	788a      	ldrb	r2, [r1, #2]
 8002358:	601a      	str	r2, [r3, #0]
  return USBD_OK;
 800235a:	2400      	movs	r4, #0
 800235c:	e010      	b.n	8002380 <USBD_HID_Setup+0x54>
      USBD_CtlSendData (pdev, 
 800235e:	2201      	movs	r2, #1
 8002360:	4619      	mov	r1, r3
      USBD_CtlSendData (pdev, 
 8002362:	4628      	mov	r0, r5
 8002364:	f000 fb5e 	bl	8002a24 <USBD_CtlSendData>
 8002368:	e7f7      	b.n	800235a <USBD_HID_Setup+0x2e>
      hhid->IdleState = (uint8_t)(req->wValue >> 8);
 800236a:	884a      	ldrh	r2, [r1, #2]
 800236c:	0a12      	lsrs	r2, r2, #8
 800236e:	605a      	str	r2, [r3, #4]
 8002370:	e7f3      	b.n	800235a <USBD_HID_Setup+0x2e>
      USBD_CtlSendData (pdev, 
 8002372:	2201      	movs	r2, #1
 8002374:	1d19      	adds	r1, r3, #4
 8002376:	e7f4      	b.n	8002362 <USBD_HID_Setup+0x36>
      USBD_CtlError (pdev, req);
 8002378:	4628      	mov	r0, r5
 800237a:	f000 fb2c 	bl	80029d6 <USBD_CtlError>
      return USBD_FAIL; 
 800237e:	2402      	movs	r4, #2
}
 8002380:	4620      	mov	r0, r4
 8002382:	bd38      	pop	{r3, r4, r5, pc}
    switch (req->bRequest)
 8002384:	784a      	ldrb	r2, [r1, #1]
 8002386:	2a0a      	cmp	r2, #10
 8002388:	d018      	beq.n	80023bc <USBD_HID_Setup+0x90>
 800238a:	2a0b      	cmp	r2, #11
 800238c:	d01c      	beq.n	80023c8 <USBD_HID_Setup+0x9c>
 800238e:	2a06      	cmp	r2, #6
 8002390:	d1f6      	bne.n	8002380 <USBD_HID_Setup+0x54>
      if( req->wValue >> 8 == HID_REPORT_DESC)
 8002392:	884b      	ldrh	r3, [r1, #2]
 8002394:	0a1b      	lsrs	r3, r3, #8
 8002396:	2b22      	cmp	r3, #34	; 0x22
 8002398:	d105      	bne.n	80023a6 <USBD_HID_Setup+0x7a>
        len = MIN(HID_MOUSE_REPORT_DESC_SIZE , req->wLength);
 800239a:	88ca      	ldrh	r2, [r1, #6]
        pbuf = HID_MOUSE_ReportDesc;
 800239c:	490c      	ldr	r1, [pc, #48]	; (80023d0 <USBD_HID_Setup+0xa4>)
        len = MIN(HID_MOUSE_REPORT_DESC_SIZE , req->wLength);
 800239e:	2abb      	cmp	r2, #187	; 0xbb
 80023a0:	bf28      	it	cs
 80023a2:	22bb      	movcs	r2, #187	; 0xbb
 80023a4:	e7dd      	b.n	8002362 <USBD_HID_Setup+0x36>
      else if( req->wValue >> 8 == HID_DESCRIPTOR_TYPE)
 80023a6:	2b21      	cmp	r3, #33	; 0x21
 80023a8:	d105      	bne.n	80023b6 <USBD_HID_Setup+0x8a>
        len = MIN(USB_HID_DESC_SIZ , req->wLength);
 80023aa:	88ca      	ldrh	r2, [r1, #6]
        pbuf = USBD_HID_Desc;   
 80023ac:	4909      	ldr	r1, [pc, #36]	; (80023d4 <USBD_HID_Setup+0xa8>)
        len = MIN(USB_HID_DESC_SIZ , req->wLength);
 80023ae:	2a09      	cmp	r2, #9
 80023b0:	bf28      	it	cs
 80023b2:	2209      	movcs	r2, #9
 80023b4:	e7d5      	b.n	8002362 <USBD_HID_Setup+0x36>
  uint8_t  *pbuf = NULL;
 80023b6:	4621      	mov	r1, r4
  uint16_t len = 0;
 80023b8:	4622      	mov	r2, r4
 80023ba:	e7d2      	b.n	8002362 <USBD_HID_Setup+0x36>
      USBD_CtlSendData (pdev,
 80023bc:	2201      	movs	r2, #1
 80023be:	f103 0108 	add.w	r1, r3, #8
 80023c2:	f000 fb2f 	bl	8002a24 <USBD_CtlSendData>
      break;
 80023c6:	e7db      	b.n	8002380 <USBD_HID_Setup+0x54>
      hhid->AltSetting = (uint8_t)(req->wValue);
 80023c8:	788a      	ldrb	r2, [r1, #2]
 80023ca:	609a      	str	r2, [r3, #8]
      break;
 80023cc:	e7d8      	b.n	8002380 <USBD_HID_Setup+0x54>
 80023ce:	bf00      	nop
 80023d0:	20000008 	.word	0x20000008
 80023d4:	20000120 	.word	0x20000120

080023d8 <USBD_HID_DeInit>:
{
 80023d8:	b510      	push	{r4, lr}
 80023da:	4604      	mov	r4, r0
  USBD_LL_CloseEP(pdev,
 80023dc:	2181      	movs	r1, #129	; 0x81
 80023de:	f000 fd79 	bl	8002ed4 <USBD_LL_CloseEP>
  if(pdev->pClassData != NULL)
 80023e2:	f8d4 0218 	ldr.w	r0, [r4, #536]	; 0x218
 80023e6:	b120      	cbz	r0, 80023f2 <USBD_HID_DeInit+0x1a>
    USBD_free(pdev->pClassData);
 80023e8:	f000 febc 	bl	8003164 <free>
    pdev->pClassData = NULL;
 80023ec:	2300      	movs	r3, #0
 80023ee:	f8c4 3218 	str.w	r3, [r4, #536]	; 0x218
}
 80023f2:	2000      	movs	r0, #0
 80023f4:	bd10      	pop	{r4, pc}

080023f6 <USBD_HID_Init>:
{
 80023f6:	b510      	push	{r4, lr}
  USBD_LL_OpenEP(pdev,
 80023f8:	2308      	movs	r3, #8
 80023fa:	2203      	movs	r2, #3
 80023fc:	2181      	movs	r1, #129	; 0x81
{
 80023fe:	4604      	mov	r4, r0
  USBD_LL_OpenEP(pdev,
 8002400:	f000 fd58 	bl	8002eb4 <USBD_LL_OpenEP>
  pdev->pClassData = USBD_malloc(sizeof (USBD_HID_HandleTypeDef));
 8002404:	2010      	movs	r0, #16
 8002406:	f000 fea5 	bl	8003154 <malloc>
 800240a:	f8c4 0218 	str.w	r0, [r4, #536]	; 0x218
  if(pdev->pClassData == NULL)
 800240e:	b118      	cbz	r0, 8002418 <USBD_HID_Init+0x22>
    ((USBD_HID_HandleTypeDef *)pdev->pClassData)->state = HID_IDLE;
 8002410:	2300      	movs	r3, #0
 8002412:	7303      	strb	r3, [r0, #12]
  uint8_t ret = 0;
 8002414:	4618      	mov	r0, r3
 8002416:	bd10      	pop	{r4, pc}
    ret = 1; 
 8002418:	2001      	movs	r0, #1
}
 800241a:	bd10      	pop	{r4, pc}

0800241c <USBD_HID_SendReport>:
{
 800241c:	b510      	push	{r4, lr}
 800241e:	4613      	mov	r3, r2
  if (pdev->dev_state == USBD_STATE_CONFIGURED )
 8002420:	f890 21fc 	ldrb.w	r2, [r0, #508]	; 0x1fc
 8002424:	2a03      	cmp	r2, #3
 8002426:	d109      	bne.n	800243c <USBD_HID_SendReport+0x20>
  USBD_HID_HandleTypeDef     *hhid = (USBD_HID_HandleTypeDef*)pdev->pClassData;
 8002428:	f8d0 4218 	ldr.w	r4, [r0, #536]	; 0x218
    if(hhid->state == HID_IDLE)
 800242c:	7b22      	ldrb	r2, [r4, #12]
 800242e:	b92a      	cbnz	r2, 800243c <USBD_HID_SendReport+0x20>
      hhid->state = HID_BUSY;
 8002430:	2201      	movs	r2, #1
 8002432:	7322      	strb	r2, [r4, #12]
      USBD_LL_Transmit (pdev, 
 8002434:	460a      	mov	r2, r1
 8002436:	2181      	movs	r1, #129	; 0x81
 8002438:	f000 fd98 	bl	8002f6c <USBD_LL_Transmit>
}
 800243c:	2000      	movs	r0, #0
 800243e:	bd10      	pop	{r4, pc}

08002440 <USBD_Init>:
* @param  pdesc: Descriptor structure address
* @param  id: Low level core index
* @retval None
*/
USBD_StatusTypeDef USBD_Init(USBD_HandleTypeDef *pdev, USBD_DescriptorsTypeDef *pdesc, uint8_t id)
{
 8002440:	b508      	push	{r3, lr}
  /* Check whether the USB Host handle is valid */
  if(pdev == NULL)
 8002442:	b180      	cbz	r0, 8002466 <USBD_Init+0x26>
    USBD_ErrLog("Invalid Device handle");
    return USBD_FAIL; 
  }
  
  /* Unlink previous class*/
  if(pdev->pClass != NULL)
 8002444:	f8d0 3214 	ldr.w	r3, [r0, #532]	; 0x214
 8002448:	b113      	cbz	r3, 8002450 <USBD_Init+0x10>
  {
    pdev->pClass = NULL;
 800244a:	2300      	movs	r3, #0
 800244c:	f8c0 3214 	str.w	r3, [r0, #532]	; 0x214
  }
  
  /* Assign USBD Descriptors */
  if(pdesc != NULL)
 8002450:	b109      	cbz	r1, 8002456 <USBD_Init+0x16>
  {
    pdev->pDesc = pdesc;
 8002452:	f8c0 1210 	str.w	r1, [r0, #528]	; 0x210
  }
  
  /* Set Device initial State */
  pdev->dev_state  = USBD_STATE_DEFAULT;
 8002456:	2301      	movs	r3, #1
 8002458:	f880 31fc 	strb.w	r3, [r0, #508]	; 0x1fc
  pdev->id = id;
 800245c:	7002      	strb	r2, [r0, #0]
  /* Initialize low level driver */
  USBD_LL_Init(pdev);
 800245e:	f000 fce7 	bl	8002e30 <USBD_LL_Init>
  
  return USBD_OK; 
 8002462:	2000      	movs	r0, #0
 8002464:	bd08      	pop	{r3, pc}
    return USBD_FAIL; 
 8002466:	2002      	movs	r0, #2
}
 8002468:	bd08      	pop	{r3, pc}

0800246a <USBD_RegisterClass>:
  * @retval USBD Status
  */
USBD_StatusTypeDef  USBD_RegisterClass(USBD_HandleTypeDef *pdev, USBD_ClassTypeDef *pclass)
{
  USBD_StatusTypeDef   status = USBD_OK;
  if(pclass != 0)
 800246a:	b119      	cbz	r1, 8002474 <USBD_RegisterClass+0xa>
  {
    /* link the class to the USB Device handle */
    pdev->pClass = pclass;
 800246c:	f8c0 1214 	str.w	r1, [r0, #532]	; 0x214
    status = USBD_OK;
 8002470:	2000      	movs	r0, #0
 8002472:	4770      	bx	lr
  }
  else
  {
    USBD_ErrLog("Invalid Class handle");
    status = USBD_FAIL; 
 8002474:	2002      	movs	r0, #2
  }
  
  return status;
}
 8002476:	4770      	bx	lr

08002478 <USBD_Start>:
  *         Start the USB Device Core.
  * @param  pdev: Device Handle
  * @retval USBD Status
  */
USBD_StatusTypeDef  USBD_Start  (USBD_HandleTypeDef *pdev)
{
 8002478:	b508      	push	{r3, lr}
  
  /* Start the low level driver  */
  USBD_LL_Start(pdev); 
 800247a:	f000 fd0d 	bl	8002e98 <USBD_LL_Start>
  
  return USBD_OK;  
}
 800247e:	2000      	movs	r0, #0
 8002480:	bd08      	pop	{r3, pc}

08002482 <USBD_SetClassConfig>:
* @param  cfgidx: configuration index
* @retval status
*/

USBD_StatusTypeDef USBD_SetClassConfig(USBD_HandleTypeDef  *pdev, uint8_t cfgidx)
{
 8002482:	b508      	push	{r3, lr}
  USBD_StatusTypeDef   ret = USBD_FAIL;
  
  if(pdev->pClass != NULL)
 8002484:	f8d0 3214 	ldr.w	r3, [r0, #532]	; 0x214
 8002488:	b90b      	cbnz	r3, 800248e <USBD_SetClassConfig+0xc>
  USBD_StatusTypeDef   ret = USBD_FAIL;
 800248a:	2002      	movs	r0, #2
 800248c:	bd08      	pop	{r3, pc}
  {
    /* Set configuration  and Start the Class*/
    if(pdev->pClass->Init(pdev, cfgidx) == 0)
 800248e:	681b      	ldr	r3, [r3, #0]
 8002490:	4798      	blx	r3
 8002492:	2800      	cmp	r0, #0
 8002494:	d1f9      	bne.n	800248a <USBD_SetClassConfig+0x8>
    {
      ret = USBD_OK;
    }
  }
  return ret; 
}
 8002496:	bd08      	pop	{r3, pc}

08002498 <USBD_ClrClassConfig>:
* @param  pdev: device instance
* @param  cfgidx: configuration index
* @retval status: USBD_StatusTypeDef
*/
USBD_StatusTypeDef USBD_ClrClassConfig(USBD_HandleTypeDef  *pdev, uint8_t cfgidx)
{
 8002498:	b508      	push	{r3, lr}
  /* Clear configuration  and De-initialize the Class process*/
  pdev->pClass->DeInit(pdev, cfgidx);  
 800249a:	f8d0 3214 	ldr.w	r3, [r0, #532]	; 0x214
 800249e:	685b      	ldr	r3, [r3, #4]
 80024a0:	4798      	blx	r3
  return USBD_OK;
}
 80024a2:	2000      	movs	r0, #0
 80024a4:	bd08      	pop	{r3, pc}

080024a6 <USBD_LL_SetupStage>:
*         Handle the setup stage
* @param  pdev: device instance
* @retval status
*/
USBD_StatusTypeDef USBD_LL_SetupStage(USBD_HandleTypeDef *pdev, uint8_t *psetup)
{
 80024a6:	b538      	push	{r3, r4, r5, lr}
 80024a8:	4604      	mov	r4, r0

  USBD_ParseSetupRequest(&pdev->request, psetup);
 80024aa:	f500 7502 	add.w	r5, r0, #520	; 0x208
 80024ae:	4628      	mov	r0, r5
 80024b0:	f000 fa7d 	bl	80029ae <USBD_ParseSetupRequest>
  
  pdev->ep0_state = USBD_EP0_SETUP;
 80024b4:	2301      	movs	r3, #1
  pdev->ep0_data_len = pdev->request.wLength;
  
  switch (pdev->request.bmRequest & 0x1F) 
 80024b6:	f894 1208 	ldrb.w	r1, [r4, #520]	; 0x208
  pdev->ep0_state = USBD_EP0_SETUP;
 80024ba:	f8c4 31f4 	str.w	r3, [r4, #500]	; 0x1f4
  pdev->ep0_data_len = pdev->request.wLength;
 80024be:	f8b4 320e 	ldrh.w	r3, [r4, #526]	; 0x20e
 80024c2:	f8c4 31f8 	str.w	r3, [r4, #504]	; 0x1f8
  switch (pdev->request.bmRequest & 0x1F) 
 80024c6:	f001 031f 	and.w	r3, r1, #31
 80024ca:	2b01      	cmp	r3, #1
 80024cc:	d00e      	beq.n	80024ec <USBD_LL_SetupStage+0x46>
 80024ce:	d307      	bcc.n	80024e0 <USBD_LL_SetupStage+0x3a>
 80024d0:	2b02      	cmp	r3, #2
 80024d2:	d010      	beq.n	80024f6 <USBD_LL_SetupStage+0x50>
  case USB_REQ_RECIPIENT_ENDPOINT:        
    USBD_StdEPReq(pdev, &pdev->request);   
    break;
    
  default:           
    USBD_LL_StallEP(pdev , pdev->request.bmRequest & 0x80);
 80024d4:	f001 0180 	and.w	r1, r1, #128	; 0x80
 80024d8:	4620      	mov	r0, r4
 80024da:	f000 fd09 	bl	8002ef0 <USBD_LL_StallEP>
    break;
 80024de:	e003      	b.n	80024e8 <USBD_LL_SetupStage+0x42>
    USBD_StdDevReq (pdev, &pdev->request);
 80024e0:	4629      	mov	r1, r5
 80024e2:	4620      	mov	r0, r4
 80024e4:	f000 f8e6 	bl	80026b4 <USBD_StdDevReq>
  }  
  return USBD_OK;  
}
 80024e8:	2000      	movs	r0, #0
 80024ea:	bd38      	pop	{r3, r4, r5, pc}
    USBD_StdItfReq(pdev, &pdev->request);
 80024ec:	4629      	mov	r1, r5
 80024ee:	4620      	mov	r0, r4
 80024f0:	f000 f9e2 	bl	80028b8 <USBD_StdItfReq>
    break;
 80024f4:	e7f8      	b.n	80024e8 <USBD_LL_SetupStage+0x42>
    USBD_StdEPReq(pdev, &pdev->request);   
 80024f6:	4629      	mov	r1, r5
 80024f8:	4620      	mov	r0, r4
 80024fa:	f000 f9f5 	bl	80028e8 <USBD_StdEPReq>
    break;
 80024fe:	e7f3      	b.n	80024e8 <USBD_LL_SetupStage+0x42>

08002500 <USBD_LL_DataOutStage>:
* @param  pdev: device instance
* @param  epnum: endpoint index
* @retval status
*/
USBD_StatusTypeDef USBD_LL_DataOutStage(USBD_HandleTypeDef *pdev , uint8_t epnum, uint8_t *pdata)
{
 8002500:	b538      	push	{r3, r4, r5, lr}
 8002502:	4604      	mov	r4, r0
 8002504:	4615      	mov	r5, r2
  USBD_EndpointTypeDef    *pep;
  
  if(epnum == 0) 
 8002506:	bb11      	cbnz	r1, 800254e <USBD_LL_DataOutStage+0x4e>
  {
    pep = &pdev->ep_out[0];
    
    if ( pdev->ep0_state == USBD_EP0_DATA_OUT)
 8002508:	f8d0 31f4 	ldr.w	r3, [r0, #500]	; 0x1f4
 800250c:	2b03      	cmp	r3, #3
 800250e:	d10f      	bne.n	8002530 <USBD_LL_DataOutStage+0x30>
    {
      if(pep->rem_length > pep->maxpacket)
 8002510:	f8d0 310c 	ldr.w	r3, [r0, #268]	; 0x10c
 8002514:	f8d0 2110 	ldr.w	r2, [r0, #272]	; 0x110
 8002518:	4293      	cmp	r3, r2
 800251a:	d90b      	bls.n	8002534 <USBD_LL_DataOutStage+0x34>
      {
        pep->rem_length -=  pep->maxpacket;
 800251c:	1a9b      	subs	r3, r3, r2
       
        USBD_CtlContinueRx (pdev, 
                            pdata,
                            MIN(pep->rem_length ,pep->maxpacket));
 800251e:	429a      	cmp	r2, r3
 8002520:	bf28      	it	cs
 8002522:	461a      	movcs	r2, r3
        pep->rem_length -=  pep->maxpacket;
 8002524:	f8c0 310c 	str.w	r3, [r0, #268]	; 0x10c
        USBD_CtlContinueRx (pdev, 
 8002528:	b292      	uxth	r2, r2
 800252a:	4629      	mov	r1, r5
 800252c:	f000 fa8f 	bl	8002a4e <USBD_CtlContinueRx>
          (pdev->dev_state == USBD_STATE_CONFIGURED))
  {
    pdev->pClass->DataOut(pdev, epnum); 
  }  
  return USBD_OK;
}
 8002530:	2000      	movs	r0, #0
 8002532:	bd38      	pop	{r3, r4, r5, pc}
        if((pdev->pClass->EP0_RxReady != NULL)&&
 8002534:	f8d0 3214 	ldr.w	r3, [r0, #532]	; 0x214
 8002538:	691b      	ldr	r3, [r3, #16]
 800253a:	b123      	cbz	r3, 8002546 <USBD_LL_DataOutStage+0x46>
 800253c:	f890 21fc 	ldrb.w	r2, [r0, #508]	; 0x1fc
 8002540:	2a03      	cmp	r2, #3
 8002542:	d100      	bne.n	8002546 <USBD_LL_DataOutStage+0x46>
          pdev->pClass->EP0_RxReady(pdev); 
 8002544:	4798      	blx	r3
        USBD_CtlSendStatus(pdev);
 8002546:	4620      	mov	r0, r4
 8002548:	f000 fa89 	bl	8002a5e <USBD_CtlSendStatus>
 800254c:	e7f0      	b.n	8002530 <USBD_LL_DataOutStage+0x30>
  else if((pdev->pClass->DataOut != NULL)&&
 800254e:	f8d0 3214 	ldr.w	r3, [r0, #532]	; 0x214
 8002552:	699b      	ldr	r3, [r3, #24]
 8002554:	2b00      	cmp	r3, #0
 8002556:	d0eb      	beq.n	8002530 <USBD_LL_DataOutStage+0x30>
 8002558:	f890 21fc 	ldrb.w	r2, [r0, #508]	; 0x1fc
 800255c:	2a03      	cmp	r2, #3
 800255e:	d1e7      	bne.n	8002530 <USBD_LL_DataOutStage+0x30>
    pdev->pClass->DataOut(pdev, epnum); 
 8002560:	4798      	blx	r3
 8002562:	e7e5      	b.n	8002530 <USBD_LL_DataOutStage+0x30>

08002564 <USBD_LL_DataInStage>:
* @param  pdev: device instance
* @param  epnum: endpoint index
* @retval status
*/
USBD_StatusTypeDef USBD_LL_DataInStage(USBD_HandleTypeDef *pdev ,uint8_t epnum, uint8_t *pdata)
{
 8002564:	b570      	push	{r4, r5, r6, lr}
 8002566:	4613      	mov	r3, r2
 8002568:	4604      	mov	r4, r0
  USBD_EndpointTypeDef    *pep;
    
  if(epnum == 0) 
 800256a:	460e      	mov	r6, r1
 800256c:	2900      	cmp	r1, #0
 800256e:	d13d      	bne.n	80025ec <USBD_LL_DataInStage+0x88>
  {
    pep = &pdev->ep_in[0];
    
    if ( pdev->ep0_state == USBD_EP0_DATA_IN)
 8002570:	f8d0 21f4 	ldr.w	r2, [r0, #500]	; 0x1f4
 8002574:	2a02      	cmp	r2, #2
 8002576:	d10f      	bne.n	8002598 <USBD_LL_DataInStage+0x34>
    {
      if(pep->rem_length > pep->maxpacket)
 8002578:	69c5      	ldr	r5, [r0, #28]
 800257a:	6a02      	ldr	r2, [r0, #32]
 800257c:	4295      	cmp	r5, r2
 800257e:	d914      	bls.n	80025aa <USBD_LL_DataInStage+0x46>
      {
        pep->rem_length -=  pep->maxpacket;
 8002580:	1aaa      	subs	r2, r5, r2
 8002582:	61c2      	str	r2, [r0, #28]
        
        USBD_CtlContinueSendData (pdev, 
 8002584:	4619      	mov	r1, r3
 8002586:	b292      	uxth	r2, r2
 8002588:	f000 fa59 	bl	8002a3e <USBD_CtlContinueSendData>
                                  pdata, 
                                  pep->rem_length);
        
        /* Prepare endpoint for premature end of transfer */
        USBD_LL_PrepareReceive (pdev,
 800258c:	4633      	mov	r3, r6
          
          USBD_CtlContinueSendData(pdev , NULL, 0);
          pdev->ep0_data_len = 0;
          
        /* Prepare endpoint for premature end of transfer */
        USBD_LL_PrepareReceive (pdev,
 800258e:	461a      	mov	r2, r3
 8002590:	4619      	mov	r1, r3
 8002592:	4620      	mov	r0, r4
 8002594:	f000 fcf8 	bl	8002f88 <USBD_LL_PrepareReceive>
          }          
          USBD_CtlReceiveStatus(pdev);
        }
      }
    }
    if (pdev->dev_test_mode == 1)
 8002598:	f894 3200 	ldrb.w	r3, [r4, #512]	; 0x200
 800259c:	2b01      	cmp	r3, #1
 800259e:	d102      	bne.n	80025a6 <USBD_LL_DataInStage+0x42>
    {
      USBD_RunTestMode(pdev); 
      pdev->dev_test_mode = 0;
 80025a0:	2300      	movs	r3, #0
 80025a2:	f884 3200 	strb.w	r3, [r4, #512]	; 0x200
          (pdev->dev_state == USBD_STATE_CONFIGURED))
  {
    pdev->pClass->DataIn(pdev, epnum); 
  }  
  return USBD_OK;
}
 80025a6:	2000      	movs	r0, #0
 80025a8:	bd70      	pop	{r4, r5, r6, pc}
        if((pep->total_length % pep->maxpacket == 0) &&
 80025aa:	6983      	ldr	r3, [r0, #24]
 80025ac:	fbb3 f5f2 	udiv	r5, r3, r2
 80025b0:	fb02 3515 	mls	r5, r2, r5, r3
 80025b4:	b965      	cbnz	r5, 80025d0 <USBD_LL_DataInStage+0x6c>
 80025b6:	429a      	cmp	r2, r3
 80025b8:	d80a      	bhi.n	80025d0 <USBD_LL_DataInStage+0x6c>
           (pep->total_length >= pep->maxpacket) &&
 80025ba:	f8d0 21f8 	ldr.w	r2, [r0, #504]	; 0x1f8
 80025be:	4293      	cmp	r3, r2
 80025c0:	d206      	bcs.n	80025d0 <USBD_LL_DataInStage+0x6c>
          USBD_CtlContinueSendData(pdev , NULL, 0);
 80025c2:	462a      	mov	r2, r5
 80025c4:	f000 fa3b 	bl	8002a3e <USBD_CtlContinueSendData>
          pdev->ep0_data_len = 0;
 80025c8:	f8c4 51f8 	str.w	r5, [r4, #504]	; 0x1f8
        USBD_LL_PrepareReceive (pdev,
 80025cc:	462b      	mov	r3, r5
 80025ce:	e7de      	b.n	800258e <USBD_LL_DataInStage+0x2a>
          if((pdev->pClass->EP0_TxSent != NULL)&&
 80025d0:	f8d4 3214 	ldr.w	r3, [r4, #532]	; 0x214
 80025d4:	68db      	ldr	r3, [r3, #12]
 80025d6:	b12b      	cbz	r3, 80025e4 <USBD_LL_DataInStage+0x80>
 80025d8:	f894 21fc 	ldrb.w	r2, [r4, #508]	; 0x1fc
 80025dc:	2a03      	cmp	r2, #3
 80025de:	d101      	bne.n	80025e4 <USBD_LL_DataInStage+0x80>
            pdev->pClass->EP0_TxSent(pdev); 
 80025e0:	4620      	mov	r0, r4
 80025e2:	4798      	blx	r3
          USBD_CtlReceiveStatus(pdev);
 80025e4:	4620      	mov	r0, r4
 80025e6:	f000 fa45 	bl	8002a74 <USBD_CtlReceiveStatus>
 80025ea:	e7d5      	b.n	8002598 <USBD_LL_DataInStage+0x34>
  else if((pdev->pClass->DataIn != NULL)&& 
 80025ec:	f8d0 3214 	ldr.w	r3, [r0, #532]	; 0x214
 80025f0:	695b      	ldr	r3, [r3, #20]
 80025f2:	2b00      	cmp	r3, #0
 80025f4:	d0d7      	beq.n	80025a6 <USBD_LL_DataInStage+0x42>
 80025f6:	f890 21fc 	ldrb.w	r2, [r0, #508]	; 0x1fc
 80025fa:	2a03      	cmp	r2, #3
 80025fc:	d1d3      	bne.n	80025a6 <USBD_LL_DataInStage+0x42>
    pdev->pClass->DataIn(pdev, epnum); 
 80025fe:	4798      	blx	r3
 8002600:	e7d1      	b.n	80025a6 <USBD_LL_DataInStage+0x42>

08002602 <USBD_LL_Reset>:
* @param  pdev: device instance
* @retval status
*/

USBD_StatusTypeDef USBD_LL_Reset(USBD_HandleTypeDef  *pdev)
{
 8002602:	b538      	push	{r3, r4, r5, lr}
  /* Open EP0 OUT */
  USBD_LL_OpenEP(pdev,
 8002604:	2200      	movs	r2, #0
{
 8002606:	4604      	mov	r4, r0
  USBD_LL_OpenEP(pdev,
 8002608:	4611      	mov	r1, r2
              0x00,
              USBD_EP_TYPE_CTRL,
              USB_MAX_EP0_SIZE);
  
  pdev->ep_out[0].maxpacket = USB_MAX_EP0_SIZE;
 800260a:	2540      	movs	r5, #64	; 0x40
  USBD_LL_OpenEP(pdev,
 800260c:	2340      	movs	r3, #64	; 0x40
 800260e:	f000 fc51 	bl	8002eb4 <USBD_LL_OpenEP>
  
  /* Open EP0 IN */
  USBD_LL_OpenEP(pdev,
 8002612:	462b      	mov	r3, r5
  pdev->ep_out[0].maxpacket = USB_MAX_EP0_SIZE;
 8002614:	f8c4 5110 	str.w	r5, [r4, #272]	; 0x110
  USBD_LL_OpenEP(pdev,
 8002618:	2200      	movs	r2, #0
 800261a:	2180      	movs	r1, #128	; 0x80
 800261c:	4620      	mov	r0, r4
 800261e:	f000 fc49 	bl	8002eb4 <USBD_LL_OpenEP>
              USBD_EP_TYPE_CTRL,
              USB_MAX_EP0_SIZE);
  
  pdev->ep_in[0].maxpacket = USB_MAX_EP0_SIZE;
  /* Upon Reset call user call back */
  pdev->dev_state = USBD_STATE_DEFAULT;
 8002622:	2301      	movs	r3, #1
 8002624:	f884 31fc 	strb.w	r3, [r4, #508]	; 0x1fc
  
  if (pdev->pClassData) 
 8002628:	f8d4 3218 	ldr.w	r3, [r4, #536]	; 0x218
  pdev->ep_in[0].maxpacket = USB_MAX_EP0_SIZE;
 800262c:	6225      	str	r5, [r4, #32]
  if (pdev->pClassData) 
 800262e:	b12b      	cbz	r3, 800263c <USBD_LL_Reset+0x3a>
    pdev->pClass->DeInit(pdev, pdev->dev_config);  
 8002630:	f8d4 3214 	ldr.w	r3, [r4, #532]	; 0x214
 8002634:	7921      	ldrb	r1, [r4, #4]
 8002636:	685b      	ldr	r3, [r3, #4]
 8002638:	4620      	mov	r0, r4
 800263a:	4798      	blx	r3
 
  
  return USBD_OK;
}
 800263c:	2000      	movs	r0, #0
 800263e:	bd38      	pop	{r3, r4, r5, pc}

08002640 <USBD_LL_SetSpeed>:
* @param  pdev: device instance
* @retval status
*/
USBD_StatusTypeDef USBD_LL_SetSpeed(USBD_HandleTypeDef  *pdev, USBD_SpeedTypeDef speed)
{
  pdev->dev_speed = speed;
 8002640:	7401      	strb	r1, [r0, #16]
  return USBD_OK;
}
 8002642:	2000      	movs	r0, #0
 8002644:	4770      	bx	lr

08002646 <USBD_LL_Suspend>:
* @retval status
*/

USBD_StatusTypeDef USBD_LL_Suspend(USBD_HandleTypeDef  *pdev)
{
  pdev->dev_old_state =  pdev->dev_state;
 8002646:	f890 31fc 	ldrb.w	r3, [r0, #508]	; 0x1fc
 800264a:	f880 31fd 	strb.w	r3, [r0, #509]	; 0x1fd
  pdev->dev_state  = USBD_STATE_SUSPENDED;
 800264e:	2304      	movs	r3, #4
 8002650:	f880 31fc 	strb.w	r3, [r0, #508]	; 0x1fc
  return USBD_OK;
}
 8002654:	2000      	movs	r0, #0
 8002656:	4770      	bx	lr

08002658 <USBD_LL_Resume>:
* @retval status
*/

USBD_StatusTypeDef USBD_LL_Resume(USBD_HandleTypeDef  *pdev)
{
  pdev->dev_state = pdev->dev_old_state;  
 8002658:	f890 31fd 	ldrb.w	r3, [r0, #509]	; 0x1fd
 800265c:	f880 31fc 	strb.w	r3, [r0, #508]	; 0x1fc
  return USBD_OK;
}
 8002660:	2000      	movs	r0, #0
 8002662:	4770      	bx	lr

08002664 <USBD_LL_SOF>:
* @param  pdev: device instance
* @retval status
*/

USBD_StatusTypeDef USBD_LL_SOF(USBD_HandleTypeDef  *pdev)
{
 8002664:	b508      	push	{r3, lr}
  if(pdev->dev_state == USBD_STATE_CONFIGURED)
 8002666:	f890 21fc 	ldrb.w	r2, [r0, #508]	; 0x1fc
 800266a:	2a03      	cmp	r2, #3
 800266c:	d104      	bne.n	8002678 <USBD_LL_SOF+0x14>
  {
    if(pdev->pClass->SOF != NULL)
 800266e:	f8d0 3214 	ldr.w	r3, [r0, #532]	; 0x214
 8002672:	69db      	ldr	r3, [r3, #28]
 8002674:	b103      	cbz	r3, 8002678 <USBD_LL_SOF+0x14>
    {
      pdev->pClass->SOF(pdev);
 8002676:	4798      	blx	r3
    }
  }
  return USBD_OK;
}
 8002678:	2000      	movs	r0, #0
 800267a:	bd08      	pop	{r3, pc}

0800267c <USBD_LL_IsoINIncomplete>:
 800267c:	2000      	movs	r0, #0
 800267e:	4770      	bx	lr

08002680 <USBD_LL_IsoOUTIncomplete>:
* @retval status
*/
USBD_StatusTypeDef USBD_LL_IsoOUTIncomplete(USBD_HandleTypeDef  *pdev, uint8_t epnum)
{
  return USBD_OK;
}
 8002680:	2000      	movs	r0, #0
 8002682:	4770      	bx	lr

08002684 <USBD_LL_DevConnected>:
* @retval status
*/
USBD_StatusTypeDef USBD_LL_DevConnected(USBD_HandleTypeDef  *pdev)
{
  return USBD_OK;
}
 8002684:	2000      	movs	r0, #0
 8002686:	4770      	bx	lr

08002688 <USBD_LL_DevDisconnected>:
*         Handle device disconnection event
* @param  pdev: device instance
* @retval status
*/
USBD_StatusTypeDef USBD_LL_DevDisconnected(USBD_HandleTypeDef  *pdev)
{
 8002688:	b508      	push	{r3, lr}
  /* Free Class Resources */
  pdev->dev_state = USBD_STATE_DEFAULT;
 800268a:	2201      	movs	r2, #1
 800268c:	f880 21fc 	strb.w	r2, [r0, #508]	; 0x1fc
  pdev->pClass->DeInit(pdev, pdev->dev_config);  
 8002690:	f8d0 2214 	ldr.w	r2, [r0, #532]	; 0x214
 8002694:	7901      	ldrb	r1, [r0, #4]
 8002696:	6852      	ldr	r2, [r2, #4]
 8002698:	4790      	blx	r2
   
  return USBD_OK;
}
 800269a:	2000      	movs	r0, #0
 800269c:	bd08      	pop	{r3, pc}

0800269e <USBD_CtlError.constprop.0>:
* @param  pdev: device instance
* @param  req: usb request
* @retval None
*/

void USBD_CtlError( USBD_HandleTypeDef *pdev ,
 800269e:	b510      	push	{r4, lr}
                            USBD_SetupReqTypedef *req)
{
  USBD_LL_StallEP(pdev , 0x80);
 80026a0:	2180      	movs	r1, #128	; 0x80
void USBD_CtlError( USBD_HandleTypeDef *pdev ,
 80026a2:	4604      	mov	r4, r0
  USBD_LL_StallEP(pdev , 0x80);
 80026a4:	f000 fc24 	bl	8002ef0 <USBD_LL_StallEP>
  USBD_LL_StallEP(pdev , 0);
 80026a8:	4620      	mov	r0, r4
 80026aa:	2100      	movs	r1, #0
}
 80026ac:	e8bd 4010 	ldmia.w	sp!, {r4, lr}
  USBD_LL_StallEP(pdev , 0);
 80026b0:	f000 bc1e 	b.w	8002ef0 <USBD_LL_StallEP>

080026b4 <USBD_StdDevReq>:
{
 80026b4:	b537      	push	{r0, r1, r2, r4, r5, lr}
  switch (req->bRequest) 
 80026b6:	784b      	ldrb	r3, [r1, #1]
{
 80026b8:	4604      	mov	r4, r0
 80026ba:	460d      	mov	r5, r1
  switch (req->bRequest) 
 80026bc:	2b09      	cmp	r3, #9
 80026be:	f200 8082 	bhi.w	80027c6 <USBD_StdDevReq+0x112>
 80026c2:	e8df f013 	tbh	[pc, r3, lsl #1]
 80026c6:	00d1      	.short	0x00d1
 80026c8:	008000ed 	.word	0x008000ed
 80026cc:	008000e1 	.word	0x008000e1
 80026d0:	000a0075 	.word	0x000a0075
 80026d4:	00c10080 	.word	0x00c10080
 80026d8:	0095      	.short	0x0095
  switch (req->wValue >> 8)
 80026da:	884b      	ldrh	r3, [r1, #2]
 80026dc:	0a1a      	lsrs	r2, r3, #8
 80026de:	3a01      	subs	r2, #1
 80026e0:	2a0e      	cmp	r2, #14
 80026e2:	d870      	bhi.n	80027c6 <USBD_StdDevReq+0x112>
 80026e4:	e8df f002 	tbb	[pc, r2]
 80026e8:	6f312420 	.word	0x6f312420
 80026ec:	6f5a516f 	.word	0x6f5a516f
 80026f0:	6f6f6f6f 	.word	0x6f6f6f6f
 80026f4:	6f6f      	.short	0x6f6f
 80026f6:	08          	.byte	0x08
 80026f7:	00          	.byte	0x00
    pbuf = pdev->pDesc->GetBOSDescriptor(pdev->dev_speed, &len);
 80026f8:	f8d0 3210 	ldr.w	r3, [r0, #528]	; 0x210
 80026fc:	69db      	ldr	r3, [r3, #28]
    pbuf = pdev->pDesc->GetDeviceDescriptor(pdev->dev_speed, &len);
 80026fe:	7c20      	ldrb	r0, [r4, #16]
 8002700:	f10d 0106 	add.w	r1, sp, #6
 8002704:	4798      	blx	r3
  if((len != 0)&& (req->wLength != 0))
 8002706:	f8bd 2006 	ldrh.w	r2, [sp, #6]
 800270a:	2a00      	cmp	r2, #0
 800270c:	d06b      	beq.n	80027e6 <USBD_StdDevReq+0x132>
 800270e:	88eb      	ldrh	r3, [r5, #6]
 8002710:	2b00      	cmp	r3, #0
 8002712:	d068      	beq.n	80027e6 <USBD_StdDevReq+0x132>
    len = MIN(len , req->wLength);
 8002714:	429a      	cmp	r2, r3
 8002716:	bf28      	it	cs
 8002718:	461a      	movcs	r2, r3
 800271a:	f8ad 2006 	strh.w	r2, [sp, #6]
    USBD_CtlSendData (pdev, 
 800271e:	4601      	mov	r1, r0
    USBD_CtlSendData (pdev, 
 8002720:	4620      	mov	r0, r4
 8002722:	f000 f97f 	bl	8002a24 <USBD_CtlSendData>
 8002726:	e05e      	b.n	80027e6 <USBD_StdDevReq+0x132>
    pbuf = pdev->pDesc->GetDeviceDescriptor(pdev->dev_speed, &len);
 8002728:	f8d0 3210 	ldr.w	r3, [r0, #528]	; 0x210
 800272c:	681b      	ldr	r3, [r3, #0]
 800272e:	e7e6      	b.n	80026fe <USBD_StdDevReq+0x4a>
    if(pdev->dev_speed == USBD_SPEED_HIGH )   
 8002730:	7c02      	ldrb	r2, [r0, #16]
 8002732:	f8d0 3214 	ldr.w	r3, [r0, #532]	; 0x214
 8002736:	b932      	cbnz	r2, 8002746 <USBD_StdDevReq+0x92>
      pbuf   = (uint8_t *)pdev->pClass->GetHSConfigDescriptor(&len);
 8002738:	6a9b      	ldr	r3, [r3, #40]	; 0x28
      pbuf   = (uint8_t *)pdev->pClass->GetFSConfigDescriptor(&len);
 800273a:	f10d 0006 	add.w	r0, sp, #6
 800273e:	4798      	blx	r3
      pbuf[1] = USB_DESC_TYPE_CONFIGURATION;
 8002740:	2302      	movs	r3, #2
      pbuf[1] = USB_DESC_TYPE_OTHER_SPEED_CONFIGURATION;
 8002742:	7043      	strb	r3, [r0, #1]
 8002744:	e7df      	b.n	8002706 <USBD_StdDevReq+0x52>
      pbuf   = (uint8_t *)pdev->pClass->GetFSConfigDescriptor(&len);
 8002746:	6adb      	ldr	r3, [r3, #44]	; 0x2c
 8002748:	e7f7      	b.n	800273a <USBD_StdDevReq+0x86>
    switch ((uint8_t)(req->wValue))
 800274a:	b2db      	uxtb	r3, r3
 800274c:	2b05      	cmp	r3, #5
 800274e:	d83a      	bhi.n	80027c6 <USBD_StdDevReq+0x112>
 8002750:	e8df f003 	tbb	[pc, r3]
 8002754:	0f0b0703 	.word	0x0f0b0703
 8002758:	1713      	.short	0x1713
     pbuf = pdev->pDesc->GetLangIDStrDescriptor(pdev->dev_speed, &len);        
 800275a:	f8d0 3210 	ldr.w	r3, [r0, #528]	; 0x210
 800275e:	685b      	ldr	r3, [r3, #4]
 8002760:	e7cd      	b.n	80026fe <USBD_StdDevReq+0x4a>
      pbuf = pdev->pDesc->GetManufacturerStrDescriptor(pdev->dev_speed, &len);
 8002762:	f8d0 3210 	ldr.w	r3, [r0, #528]	; 0x210
 8002766:	689b      	ldr	r3, [r3, #8]
 8002768:	e7c9      	b.n	80026fe <USBD_StdDevReq+0x4a>
      pbuf = pdev->pDesc->GetProductStrDescriptor(pdev->dev_speed, &len);
 800276a:	f8d0 3210 	ldr.w	r3, [r0, #528]	; 0x210
 800276e:	68db      	ldr	r3, [r3, #12]
 8002770:	e7c5      	b.n	80026fe <USBD_StdDevReq+0x4a>
      pbuf = pdev->pDesc->GetSerialStrDescriptor(pdev->dev_speed, &len);
 8002772:	f8d0 3210 	ldr.w	r3, [r0, #528]	; 0x210
 8002776:	691b      	ldr	r3, [r3, #16]
 8002778:	e7c1      	b.n	80026fe <USBD_StdDevReq+0x4a>
      pbuf = pdev->pDesc->GetConfigurationStrDescriptor(pdev->dev_speed, &len);
 800277a:	f8d0 3210 	ldr.w	r3, [r0, #528]	; 0x210
 800277e:	695b      	ldr	r3, [r3, #20]
 8002780:	e7bd      	b.n	80026fe <USBD_StdDevReq+0x4a>
      pbuf = pdev->pDesc->GetInterfaceStrDescriptor(pdev->dev_speed, &len);
 8002782:	f8d0 3210 	ldr.w	r3, [r0, #528]	; 0x210
 8002786:	699b      	ldr	r3, [r3, #24]
 8002788:	e7b9      	b.n	80026fe <USBD_StdDevReq+0x4a>
    if(pdev->dev_speed == USBD_SPEED_HIGH  )   
 800278a:	7c03      	ldrb	r3, [r0, #16]
 800278c:	b9db      	cbnz	r3, 80027c6 <USBD_StdDevReq+0x112>
      pbuf   = (uint8_t *)pdev->pClass->GetDeviceQualifierDescriptor(&len);
 800278e:	f8d0 3214 	ldr.w	r3, [r0, #532]	; 0x214
 8002792:	f10d 0006 	add.w	r0, sp, #6
 8002796:	6b5b      	ldr	r3, [r3, #52]	; 0x34
 8002798:	4798      	blx	r3
 800279a:	e7b4      	b.n	8002706 <USBD_StdDevReq+0x52>
    if(pdev->dev_speed == USBD_SPEED_HIGH  )   
 800279c:	7c03      	ldrb	r3, [r0, #16]
 800279e:	b993      	cbnz	r3, 80027c6 <USBD_StdDevReq+0x112>
      pbuf   = (uint8_t *)pdev->pClass->GetOtherSpeedConfigDescriptor(&len);
 80027a0:	f8d0 3214 	ldr.w	r3, [r0, #532]	; 0x214
 80027a4:	f10d 0006 	add.w	r0, sp, #6
 80027a8:	6b1b      	ldr	r3, [r3, #48]	; 0x30
 80027aa:	4798      	blx	r3
      pbuf[1] = USB_DESC_TYPE_OTHER_SPEED_CONFIGURATION;
 80027ac:	2307      	movs	r3, #7
 80027ae:	e7c8      	b.n	8002742 <USBD_StdDevReq+0x8e>
  if ((req->wIndex == 0) && (req->wLength == 0)) 
 80027b0:	888b      	ldrh	r3, [r1, #4]
 80027b2:	b943      	cbnz	r3, 80027c6 <USBD_StdDevReq+0x112>
 80027b4:	88cb      	ldrh	r3, [r1, #6]
 80027b6:	b933      	cbnz	r3, 80027c6 <USBD_StdDevReq+0x112>
    if (pdev->dev_state == USBD_STATE_CONFIGURED) 
 80027b8:	f890 31fc 	ldrb.w	r3, [r0, #508]	; 0x1fc
    dev_addr = (uint8_t)(req->wValue) & 0x7F;     
 80027bc:	788d      	ldrb	r5, [r1, #2]
    if (pdev->dev_state == USBD_STATE_CONFIGURED) 
 80027be:	2b03      	cmp	r3, #3
    dev_addr = (uint8_t)(req->wValue) & 0x7F;     
 80027c0:	f005 057f 	and.w	r5, r5, #127	; 0x7f
    if (pdev->dev_state == USBD_STATE_CONFIGURED) 
 80027c4:	d103      	bne.n	80027ce <USBD_StdDevReq+0x11a>
    USBD_CtlError(pdev , req);
 80027c6:	4620      	mov	r0, r4
 80027c8:	f7ff ff69 	bl	800269e <USBD_CtlError.constprop.0>
    break;
 80027cc:	e00b      	b.n	80027e6 <USBD_StdDevReq+0x132>
      pdev->dev_address = dev_addr;
 80027ce:	f880 51fe 	strb.w	r5, [r0, #510]	; 0x1fe
      USBD_LL_SetUSBAddress(pdev, dev_addr);               
 80027d2:	4629      	mov	r1, r5
 80027d4:	f000 fbbc 	bl	8002f50 <USBD_LL_SetUSBAddress>
      USBD_CtlSendStatus(pdev);                         
 80027d8:	4620      	mov	r0, r4
 80027da:	f000 f940 	bl	8002a5e <USBD_CtlSendStatus>
      if (dev_addr != 0) 
 80027de:	b12d      	cbz	r5, 80027ec <USBD_StdDevReq+0x138>
        pdev->dev_state  = USBD_STATE_ADDRESSED;
 80027e0:	2302      	movs	r3, #2
        pdev->dev_state  = USBD_STATE_DEFAULT; 
 80027e2:	f884 31fc 	strb.w	r3, [r4, #508]	; 0x1fc
}
 80027e6:	2000      	movs	r0, #0
 80027e8:	b003      	add	sp, #12
 80027ea:	bd30      	pop	{r4, r5, pc}
        pdev->dev_state  = USBD_STATE_DEFAULT; 
 80027ec:	2301      	movs	r3, #1
 80027ee:	e7f8      	b.n	80027e2 <USBD_StdDevReq+0x12e>
  cfgidx = (uint8_t)(req->wValue);                 
 80027f0:	7889      	ldrb	r1, [r1, #2]
 80027f2:	4d30      	ldr	r5, [pc, #192]	; (80028b4 <USBD_StdDevReq+0x200>)
  if (cfgidx > USBD_MAX_NUM_CONFIGURATION ) 
 80027f4:	2901      	cmp	r1, #1
  cfgidx = (uint8_t)(req->wValue);                 
 80027f6:	7029      	strb	r1, [r5, #0]
  if (cfgidx > USBD_MAX_NUM_CONFIGURATION ) 
 80027f8:	d8e5      	bhi.n	80027c6 <USBD_StdDevReq+0x112>
    switch (pdev->dev_state) 
 80027fa:	f890 31fc 	ldrb.w	r3, [r0, #508]	; 0x1fc
 80027fe:	2b02      	cmp	r3, #2
 8002800:	d00c      	beq.n	800281c <USBD_StdDevReq+0x168>
 8002802:	2b03      	cmp	r3, #3
 8002804:	d1df      	bne.n	80027c6 <USBD_StdDevReq+0x112>
      if (cfgidx == 0) 
 8002806:	b9b1      	cbnz	r1, 8002836 <USBD_StdDevReq+0x182>
        pdev->dev_state = USBD_STATE_ADDRESSED;
 8002808:	2302      	movs	r3, #2
 800280a:	f880 31fc 	strb.w	r3, [r0, #508]	; 0x1fc
        pdev->dev_config = cfgidx;          
 800280e:	6041      	str	r1, [r0, #4]
        USBD_ClrClassConfig(pdev , cfgidx);
 8002810:	f7ff fe42 	bl	8002498 <USBD_ClrClassConfig>
      USBD_CtlSendStatus(pdev);
 8002814:	4620      	mov	r0, r4
 8002816:	f000 f922 	bl	8002a5e <USBD_CtlSendStatus>
 800281a:	e7e4      	b.n	80027e6 <USBD_StdDevReq+0x132>
      if (cfgidx) 
 800281c:	2900      	cmp	r1, #0
 800281e:	d0f9      	beq.n	8002814 <USBD_StdDevReq+0x160>
        pdev->dev_config = cfgidx;
 8002820:	2101      	movs	r1, #1
        pdev->dev_state = USBD_STATE_CONFIGURED;
 8002822:	2303      	movs	r3, #3
        pdev->dev_config = cfgidx;
 8002824:	6041      	str	r1, [r0, #4]
        pdev->dev_state = USBD_STATE_CONFIGURED;
 8002826:	f880 31fc 	strb.w	r3, [r0, #508]	; 0x1fc
        if(USBD_SetClassConfig(pdev , cfgidx) == USBD_FAIL)
 800282a:	4620      	mov	r0, r4
 800282c:	f7ff fe29 	bl	8002482 <USBD_SetClassConfig>
 8002830:	2802      	cmp	r0, #2
 8002832:	d1ef      	bne.n	8002814 <USBD_StdDevReq+0x160>
 8002834:	e7c7      	b.n	80027c6 <USBD_StdDevReq+0x112>
      else  if (cfgidx != pdev->dev_config) 
 8002836:	6841      	ldr	r1, [r0, #4]
 8002838:	2901      	cmp	r1, #1
 800283a:	d0eb      	beq.n	8002814 <USBD_StdDevReq+0x160>
        USBD_ClrClassConfig(pdev , pdev->dev_config);
 800283c:	b2c9      	uxtb	r1, r1
 800283e:	f7ff fe2b 	bl	8002498 <USBD_ClrClassConfig>
        pdev->dev_config = cfgidx;
 8002842:	7829      	ldrb	r1, [r5, #0]
 8002844:	6061      	str	r1, [r4, #4]
 8002846:	e7f0      	b.n	800282a <USBD_StdDevReq+0x176>
  if (req->wLength != 1) 
 8002848:	88ca      	ldrh	r2, [r1, #6]
 800284a:	2a01      	cmp	r2, #1
 800284c:	d1bb      	bne.n	80027c6 <USBD_StdDevReq+0x112>
    switch (pdev->dev_state )  
 800284e:	f890 31fc 	ldrb.w	r3, [r0, #508]	; 0x1fc
 8002852:	2b02      	cmp	r3, #2
 8002854:	d003      	beq.n	800285e <USBD_StdDevReq+0x1aa>
 8002856:	2b03      	cmp	r3, #3
 8002858:	d1b5      	bne.n	80027c6 <USBD_StdDevReq+0x112>
      USBD_CtlSendData (pdev, 
 800285a:	1d01      	adds	r1, r0, #4
 800285c:	e760      	b.n	8002720 <USBD_StdDevReq+0x6c>
      pdev->dev_default_config = 0;
 800285e:	4601      	mov	r1, r0
 8002860:	2300      	movs	r3, #0
 8002862:	f841 3f08 	str.w	r3, [r1, #8]!
 8002866:	e75b      	b.n	8002720 <USBD_StdDevReq+0x6c>
  switch (pdev->dev_state) 
 8002868:	f890 31fc 	ldrb.w	r3, [r0, #508]	; 0x1fc
 800286c:	3b02      	subs	r3, #2
 800286e:	2b01      	cmp	r3, #1
 8002870:	d8a9      	bhi.n	80027c6 <USBD_StdDevReq+0x112>
    pdev->dev_config_status = USB_CONFIG_SELF_POWERED;                                  
 8002872:	2301      	movs	r3, #1
 8002874:	60c3      	str	r3, [r0, #12]
    if (pdev->dev_remote_wakeup) 
 8002876:	f8d0 3204 	ldr.w	r3, [r0, #516]	; 0x204
 800287a:	b10b      	cbz	r3, 8002880 <USBD_StdDevReq+0x1cc>
       pdev->dev_config_status |= USB_CONFIG_REMOTE_WAKEUP;                                
 800287c:	2303      	movs	r3, #3
 800287e:	60c3      	str	r3, [r0, #12]
    USBD_CtlSendData (pdev, 
 8002880:	2202      	movs	r2, #2
 8002882:	f104 010c 	add.w	r1, r4, #12
 8002886:	e74b      	b.n	8002720 <USBD_StdDevReq+0x6c>
  if (req->wValue == USB_FEATURE_REMOTE_WAKEUP)
 8002888:	884b      	ldrh	r3, [r1, #2]
 800288a:	2b01      	cmp	r3, #1
 800288c:	d1ab      	bne.n	80027e6 <USBD_StdDevReq+0x132>
      pdev->dev_remote_wakeup = 0; 
 800288e:	f8c4 3204 	str.w	r3, [r4, #516]	; 0x204
      pdev->pClass->Setup (pdev, req);   
 8002892:	f8d4 3214 	ldr.w	r3, [r4, #532]	; 0x214
 8002896:	4629      	mov	r1, r5
 8002898:	689b      	ldr	r3, [r3, #8]
 800289a:	4620      	mov	r0, r4
 800289c:	4798      	blx	r3
 800289e:	e7b9      	b.n	8002814 <USBD_StdDevReq+0x160>
  switch (pdev->dev_state)
 80028a0:	f890 31fc 	ldrb.w	r3, [r0, #508]	; 0x1fc
 80028a4:	3b02      	subs	r3, #2
 80028a6:	2b01      	cmp	r3, #1
 80028a8:	d88d      	bhi.n	80027c6 <USBD_StdDevReq+0x112>
    if (req->wValue == USB_FEATURE_REMOTE_WAKEUP) 
 80028aa:	884b      	ldrh	r3, [r1, #2]
 80028ac:	2b01      	cmp	r3, #1
 80028ae:	d19a      	bne.n	80027e6 <USBD_StdDevReq+0x132>
      pdev->dev_remote_wakeup = 0; 
 80028b0:	2300      	movs	r3, #0
 80028b2:	e7ec      	b.n	800288e <USBD_StdDevReq+0x1da>
 80028b4:	20000200 	.word	0x20000200

080028b8 <USBD_StdItfReq>:
{
 80028b8:	b538      	push	{r3, r4, r5, lr}
  switch (pdev->dev_state) 
 80028ba:	f890 31fc 	ldrb.w	r3, [r0, #508]	; 0x1fc
 80028be:	2b03      	cmp	r3, #3
{
 80028c0:	4604      	mov	r4, r0
 80028c2:	460d      	mov	r5, r1
  switch (pdev->dev_state) 
 80028c4:	d10d      	bne.n	80028e2 <USBD_StdItfReq+0x2a>
    if (LOBYTE(req->wIndex) <= USBD_MAX_NUM_INTERFACES) 
 80028c6:	790b      	ldrb	r3, [r1, #4]
 80028c8:	2b01      	cmp	r3, #1
 80028ca:	d80a      	bhi.n	80028e2 <USBD_StdItfReq+0x2a>
      pdev->pClass->Setup (pdev, req); 
 80028cc:	f8d0 3214 	ldr.w	r3, [r0, #532]	; 0x214
 80028d0:	689b      	ldr	r3, [r3, #8]
 80028d2:	4798      	blx	r3
      if((req->wLength == 0)&& (ret == USBD_OK))
 80028d4:	88eb      	ldrh	r3, [r5, #6]
 80028d6:	b913      	cbnz	r3, 80028de <USBD_StdItfReq+0x26>
         USBD_CtlSendStatus(pdev);
 80028d8:	4620      	mov	r0, r4
 80028da:	f000 f8c0 	bl	8002a5e <USBD_CtlSendStatus>
}
 80028de:	2000      	movs	r0, #0
 80028e0:	bd38      	pop	{r3, r4, r5, pc}
     USBD_CtlError(pdev , req);
 80028e2:	f7ff fedc 	bl	800269e <USBD_CtlError.constprop.0>
    break;
 80028e6:	e7fa      	b.n	80028de <USBD_StdItfReq+0x26>

080028e8 <USBD_StdEPReq>:
{
 80028e8:	b570      	push	{r4, r5, r6, lr}
  if ((req->bmRequest & 0x60) == 0x20)
 80028ea:	780a      	ldrb	r2, [r1, #0]
  ep_addr  = LOBYTE(req->wIndex);   
 80028ec:	888e      	ldrh	r6, [r1, #4]
  if ((req->bmRequest & 0x60) == 0x20)
 80028ee:	f002 0260 	and.w	r2, r2, #96	; 0x60
 80028f2:	2a20      	cmp	r2, #32
{
 80028f4:	4604      	mov	r4, r0
 80028f6:	460d      	mov	r5, r1
  ep_addr  = LOBYTE(req->wIndex);   
 80028f8:	b2f3      	uxtb	r3, r6
  if ((req->bmRequest & 0x60) == 0x20)
 80028fa:	d105      	bne.n	8002908 <USBD_StdEPReq+0x20>
    pdev->pClass->Setup (pdev, req);
 80028fc:	f8d0 3214 	ldr.w	r3, [r0, #532]	; 0x214
 8002900:	689b      	ldr	r3, [r3, #8]
 8002902:	4798      	blx	r3
}
 8002904:	2000      	movs	r0, #0
 8002906:	bd70      	pop	{r4, r5, r6, pc}
  switch (req->bRequest) 
 8002908:	784a      	ldrb	r2, [r1, #1]
 800290a:	2a01      	cmp	r2, #1
 800290c:	d01c      	beq.n	8002948 <USBD_StdEPReq+0x60>
 800290e:	d32a      	bcc.n	8002966 <USBD_StdEPReq+0x7e>
 8002910:	2a03      	cmp	r2, #3
 8002912:	d1f7      	bne.n	8002904 <USBD_StdEPReq+0x1c>
    switch (pdev->dev_state) 
 8002914:	f890 21fc 	ldrb.w	r2, [r0, #508]	; 0x1fc
 8002918:	2a02      	cmp	r2, #2
 800291a:	d040      	beq.n	800299e <USBD_StdEPReq+0xb6>
 800291c:	2a03      	cmp	r2, #3
 800291e:	d002      	beq.n	8002926 <USBD_StdEPReq+0x3e>
      USBD_CtlError(pdev , req);
 8002920:	f7ff febd 	bl	800269e <USBD_CtlError.constprop.0>
      break;
 8002924:	e7ee      	b.n	8002904 <USBD_StdEPReq+0x1c>
      if (req->wValue == USB_FEATURE_EP_HALT)
 8002926:	884a      	ldrh	r2, [r1, #2]
 8002928:	b922      	cbnz	r2, 8002934 <USBD_StdEPReq+0x4c>
        if ((ep_addr != 0x00) && (ep_addr != 0x80)) 
 800292a:	065e      	lsls	r6, r3, #25
 800292c:	d002      	beq.n	8002934 <USBD_StdEPReq+0x4c>
          USBD_LL_StallEP(pdev , ep_addr);
 800292e:	4619      	mov	r1, r3
 8002930:	f000 fade 	bl	8002ef0 <USBD_LL_StallEP>
          pdev->pClass->Setup (pdev, req);
 8002934:	f8d4 3214 	ldr.w	r3, [r4, #532]	; 0x214
 8002938:	4629      	mov	r1, r5
 800293a:	689b      	ldr	r3, [r3, #8]
 800293c:	4620      	mov	r0, r4
 800293e:	4798      	blx	r3
        USBD_CtlSendStatus(pdev);
 8002940:	4620      	mov	r0, r4
 8002942:	f000 f88c 	bl	8002a5e <USBD_CtlSendStatus>
 8002946:	e7dd      	b.n	8002904 <USBD_StdEPReq+0x1c>
    switch (pdev->dev_state) 
 8002948:	f890 21fc 	ldrb.w	r2, [r0, #508]	; 0x1fc
 800294c:	2a02      	cmp	r2, #2
 800294e:	d026      	beq.n	800299e <USBD_StdEPReq+0xb6>
 8002950:	2a03      	cmp	r2, #3
 8002952:	d1e5      	bne.n	8002920 <USBD_StdEPReq+0x38>
      if (req->wValue == USB_FEATURE_EP_HALT)
 8002954:	884a      	ldrh	r2, [r1, #2]
 8002956:	2a00      	cmp	r2, #0
 8002958:	d1d4      	bne.n	8002904 <USBD_StdEPReq+0x1c>
        if ((ep_addr & 0x7F) != 0x00) 
 800295a:	0659      	lsls	r1, r3, #25
 800295c:	d0f0      	beq.n	8002940 <USBD_StdEPReq+0x58>
          USBD_LL_ClearStallEP(pdev , ep_addr);
 800295e:	4619      	mov	r1, r3
 8002960:	f000 fad4 	bl	8002f0c <USBD_LL_ClearStallEP>
 8002964:	e7e6      	b.n	8002934 <USBD_StdEPReq+0x4c>
    switch (pdev->dev_state) 
 8002966:	f890 21fc 	ldrb.w	r2, [r0, #508]	; 0x1fc
 800296a:	2a02      	cmp	r2, #2
 800296c:	d017      	beq.n	800299e <USBD_StdEPReq+0xb6>
 800296e:	2a03      	cmp	r2, #3
 8002970:	d1d6      	bne.n	8002920 <USBD_StdEPReq+0x38>
 8002972:	f003 057f 	and.w	r5, r3, #127	; 0x7f
      pep = ((ep_addr & 0x80) == 0x80) ? &pdev->ep_in[ep_addr & 0x7F]:\
 8002976:	f016 0f80 	tst.w	r6, #128	; 0x80
 800297a:	eb00 1505 	add.w	r5, r0, r5, lsl #4
      if(USBD_LL_IsStallEP(pdev, ep_addr))
 800297e:	4619      	mov	r1, r3
      pep = ((ep_addr & 0x80) == 0x80) ? &pdev->ep_in[ep_addr & 0x7F]:\
 8002980:	bf14      	ite	ne
 8002982:	3514      	addne	r5, #20
 8002984:	f505 7582 	addeq.w	r5, r5, #260	; 0x104
      if(USBD_LL_IsStallEP(pdev, ep_addr))
 8002988:	f000 face 	bl	8002f28 <USBD_LL_IsStallEP>
 800298c:	b168      	cbz	r0, 80029aa <USBD_StdEPReq+0xc2>
        pep->status = 0x0001;     
 800298e:	2301      	movs	r3, #1
 8002990:	602b      	str	r3, [r5, #0]
      USBD_CtlSendData (pdev,
 8002992:	2202      	movs	r2, #2
 8002994:	4629      	mov	r1, r5
 8002996:	4620      	mov	r0, r4
 8002998:	f000 f844 	bl	8002a24 <USBD_CtlSendData>
      break;
 800299c:	e7b2      	b.n	8002904 <USBD_StdEPReq+0x1c>
      if ((ep_addr & 0x7F) != 0x00) 
 800299e:	065a      	lsls	r2, r3, #25
 80029a0:	d0b0      	beq.n	8002904 <USBD_StdEPReq+0x1c>
        USBD_LL_StallEP(pdev , ep_addr);
 80029a2:	4619      	mov	r1, r3
 80029a4:	f000 faa4 	bl	8002ef0 <USBD_LL_StallEP>
 80029a8:	e7ac      	b.n	8002904 <USBD_StdEPReq+0x1c>
        pep->status = 0x0000;  
 80029aa:	6028      	str	r0, [r5, #0]
 80029ac:	e7f1      	b.n	8002992 <USBD_StdEPReq+0xaa>

080029ae <USBD_ParseSetupRequest>:
  req->bmRequest     = *(uint8_t *)  (pdata);
 80029ae:	780b      	ldrb	r3, [r1, #0]
 80029b0:	7003      	strb	r3, [r0, #0]
  req->bRequest      = *(uint8_t *)  (pdata +  1);
 80029b2:	784b      	ldrb	r3, [r1, #1]
 80029b4:	7043      	strb	r3, [r0, #1]
  req->wValue        = SWAPBYTE      (pdata +  2);
 80029b6:	78ca      	ldrb	r2, [r1, #3]
 80029b8:	788b      	ldrb	r3, [r1, #2]
 80029ba:	eb03 2302 	add.w	r3, r3, r2, lsl #8
 80029be:	8043      	strh	r3, [r0, #2]
  req->wIndex        = SWAPBYTE      (pdata +  4);
 80029c0:	794a      	ldrb	r2, [r1, #5]
 80029c2:	790b      	ldrb	r3, [r1, #4]
 80029c4:	eb03 2302 	add.w	r3, r3, r2, lsl #8
 80029c8:	8083      	strh	r3, [r0, #4]
  req->wLength       = SWAPBYTE      (pdata +  6);
 80029ca:	79ca      	ldrb	r2, [r1, #7]
 80029cc:	798b      	ldrb	r3, [r1, #6]
 80029ce:	eb03 2302 	add.w	r3, r3, r2, lsl #8
 80029d2:	80c3      	strh	r3, [r0, #6]
 80029d4:	4770      	bx	lr

080029d6 <USBD_CtlError>:
{
 80029d6:	b510      	push	{r4, lr}
  USBD_LL_StallEP(pdev , 0x80);
 80029d8:	2180      	movs	r1, #128	; 0x80
{
 80029da:	4604      	mov	r4, r0
  USBD_LL_StallEP(pdev , 0x80);
 80029dc:	f000 fa88 	bl	8002ef0 <USBD_LL_StallEP>
  USBD_LL_StallEP(pdev , 0);
 80029e0:	4620      	mov	r0, r4
 80029e2:	2100      	movs	r1, #0
}
 80029e4:	e8bd 4010 	ldmia.w	sp!, {r4, lr}
  USBD_LL_StallEP(pdev , 0);
 80029e8:	f000 ba82 	b.w	8002ef0 <USBD_LL_StallEP>

080029ec <USBD_GetString>:
  * @param  unicode : Formatted string buffer (unicode)
  * @param  len : descriptor length
  * @retval None
  */
void USBD_GetString(uint8_t *desc, uint8_t *unicode, uint16_t *len)
{
 80029ec:	b530      	push	{r4, r5, lr}
  uint8_t idx = 0;
  
  if (desc != NULL) 
 80029ee:	b188      	cbz	r0, 8002a14 <USBD_GetString+0x28>
 80029f0:	4605      	mov	r5, r0
 80029f2:	1a2b      	subs	r3, r5, r0
  */
static uint8_t USBD_GetLen(uint8_t *buf)
{
    uint8_t  len = 0;

    while (*buf != '\0') 
 80029f4:	f815 4b01 	ldrb.w	r4, [r5], #1
 80029f8:	b2db      	uxtb	r3, r3
 80029fa:	2c00      	cmp	r4, #0
 80029fc:	d1f9      	bne.n	80029f2 <USBD_GetString+0x6>
    *len =  USBD_GetLen(desc) * 2 + 2;    
 80029fe:	005b      	lsls	r3, r3, #1
 8002a00:	3302      	adds	r3, #2
 8002a02:	8013      	strh	r3, [r2, #0]
    unicode[idx++] = *len;
 8002a04:	700b      	strb	r3, [r1, #0]
    unicode[idx++] =  USB_DESC_TYPE_STRING;
 8002a06:	2303      	movs	r3, #3
 8002a08:	704b      	strb	r3, [r1, #1]
 8002a0a:	3801      	subs	r0, #1
 8002a0c:	2302      	movs	r3, #2
    while (*desc != '\0') 
 8002a0e:	f810 5f01 	ldrb.w	r5, [r0, #1]!
 8002a12:	b905      	cbnz	r5, 8002a16 <USBD_GetString+0x2a>
 8002a14:	bd30      	pop	{r4, r5, pc}
      unicode[idx++] = *desc++;
 8002a16:	1c5a      	adds	r2, r3, #1
 8002a18:	b2d2      	uxtb	r2, r2
 8002a1a:	54cd      	strb	r5, [r1, r3]
      unicode[idx++] =  0x00;
 8002a1c:	3302      	adds	r3, #2
 8002a1e:	b2db      	uxtb	r3, r3
 8002a20:	548c      	strb	r4, [r1, r2]
 8002a22:	e7f4      	b.n	8002a0e <USBD_GetString+0x22>

08002a24 <USBD_CtlSendData>:
* @retval status
*/
USBD_StatusTypeDef  USBD_CtlSendData (USBD_HandleTypeDef  *pdev, 
                               uint8_t *pbuf,
                               uint16_t len)
{
 8002a24:	b510      	push	{r4, lr}
 8002a26:	4613      	mov	r3, r2
  /* Set EP0 State */
  pdev->ep0_state          = USBD_EP0_DATA_IN;                                      
 8002a28:	2202      	movs	r2, #2
 8002a2a:	f8c0 21f4 	str.w	r2, [r0, #500]	; 0x1f4
  pdev->ep_in[0].total_length = len;
 8002a2e:	6183      	str	r3, [r0, #24]
  pdev->ep_in[0].rem_length   = len;
 /* Start the transfer */
  USBD_LL_Transmit (pdev, 0x00, pbuf, len);  
 8002a30:	460a      	mov	r2, r1
  pdev->ep_in[0].rem_length   = len;
 8002a32:	61c3      	str	r3, [r0, #28]
  USBD_LL_Transmit (pdev, 0x00, pbuf, len);  
 8002a34:	2100      	movs	r1, #0
 8002a36:	f000 fa99 	bl	8002f6c <USBD_LL_Transmit>
  
  return USBD_OK;
}
 8002a3a:	2000      	movs	r0, #0
 8002a3c:	bd10      	pop	{r4, pc}

08002a3e <USBD_CtlContinueSendData>:
* @retval status
*/
USBD_StatusTypeDef  USBD_CtlContinueSendData (USBD_HandleTypeDef  *pdev, 
                                       uint8_t *pbuf,
                                       uint16_t len)
{
 8002a3e:	b508      	push	{r3, lr}
 /* Start the next transfer */
  USBD_LL_Transmit (pdev, 0x00, pbuf, len);   
 8002a40:	4613      	mov	r3, r2
 8002a42:	460a      	mov	r2, r1
 8002a44:	2100      	movs	r1, #0
 8002a46:	f000 fa91 	bl	8002f6c <USBD_LL_Transmit>
  
  return USBD_OK;
}
 8002a4a:	2000      	movs	r0, #0
 8002a4c:	bd08      	pop	{r3, pc}

08002a4e <USBD_CtlContinueRx>:
* @retval status
*/
USBD_StatusTypeDef  USBD_CtlContinueRx (USBD_HandleTypeDef  *pdev, 
                                          uint8_t *pbuf,                                          
                                          uint16_t len)
{
 8002a4e:	b508      	push	{r3, lr}

  USBD_LL_PrepareReceive (pdev,
 8002a50:	4613      	mov	r3, r2
 8002a52:	460a      	mov	r2, r1
 8002a54:	2100      	movs	r1, #0
 8002a56:	f000 fa97 	bl	8002f88 <USBD_LL_PrepareReceive>
                          0,                     
                          pbuf,                         
                          len);
  return USBD_OK;
}
 8002a5a:	2000      	movs	r0, #0
 8002a5c:	bd08      	pop	{r3, pc}

08002a5e <USBD_CtlSendStatus>:
*         send zero lzngth packet on the ctl pipe
* @param  pdev: device instance
* @retval status
*/
USBD_StatusTypeDef  USBD_CtlSendStatus (USBD_HandleTypeDef  *pdev)
{
 8002a5e:	b508      	push	{r3, lr}

  /* Set EP0 State */
  pdev->ep0_state = USBD_EP0_STATUS_IN;
 8002a60:	2304      	movs	r3, #4
 8002a62:	f8c0 31f4 	str.w	r3, [r0, #500]	; 0x1f4
  
 /* Start the transfer */
  USBD_LL_Transmit (pdev, 0x00, NULL, 0);   
 8002a66:	2300      	movs	r3, #0
 8002a68:	461a      	mov	r2, r3
 8002a6a:	4619      	mov	r1, r3
 8002a6c:	f000 fa7e 	bl	8002f6c <USBD_LL_Transmit>
  
  return USBD_OK;
}
 8002a70:	2000      	movs	r0, #0
 8002a72:	bd08      	pop	{r3, pc}

08002a74 <USBD_CtlReceiveStatus>:
*         receive zero lzngth packet on the ctl pipe
* @param  pdev: device instance
* @retval status
*/
USBD_StatusTypeDef  USBD_CtlReceiveStatus (USBD_HandleTypeDef  *pdev)
{
 8002a74:	b508      	push	{r3, lr}
  /* Set EP0 State */
  pdev->ep0_state = USBD_EP0_STATUS_OUT; 
 8002a76:	2305      	movs	r3, #5
 8002a78:	f8c0 31f4 	str.w	r3, [r0, #500]	; 0x1f4
  
 /* Start the transfer */  
  USBD_LL_PrepareReceive ( pdev,
 8002a7c:	2300      	movs	r3, #0
 8002a7e:	461a      	mov	r2, r3
 8002a80:	4619      	mov	r1, r3
 8002a82:	f000 fa81 	bl	8002f88 <USBD_LL_PrepareReceive>
                    0,
                    NULL,
                    0);  

  return USBD_OK;
}
 8002a86:	2000      	movs	r0, #0
 8002a88:	bd08      	pop	{r3, pc}
	...

08002a8c <SystemClock_Config>:
/**
  * @brief System Clock Configuration
  * @retval None
  */
void SystemClock_Config(void)
{
 8002a8c:	b530      	push	{r4, r5, lr}
 8002a8e:	b0ad      	sub	sp, #180	; 0xb4
  RCC_ClkInitTypeDef RCC_ClkInitStruct;
  RCC_PeriphCLKInitTypeDef PeriphClkInitStruct;

    /**Configure the main internal regulator output voltage 
    */
  __HAL_RCC_PWR_CLK_ENABLE();
 8002a90:	4b2d      	ldr	r3, [pc, #180]	; (8002b48 <SystemClock_Config+0xbc>)
 8002a92:	2100      	movs	r1, #0
 8002a94:	9101      	str	r1, [sp, #4]
 8002a96:	6c1a      	ldr	r2, [r3, #64]	; 0x40
 8002a98:	f042 5280 	orr.w	r2, r2, #268435456	; 0x10000000
 8002a9c:	641a      	str	r2, [r3, #64]	; 0x40
 8002a9e:	6c1b      	ldr	r3, [r3, #64]	; 0x40
 8002aa0:	f003 5380 	and.w	r3, r3, #268435456	; 0x10000000
 8002aa4:	9301      	str	r3, [sp, #4]
 8002aa6:	9b01      	ldr	r3, [sp, #4]

  __HAL_PWR_VOLTAGESCALING_CONFIG(PWR_REGULATOR_VOLTAGE_SCALE1);
 8002aa8:	4b28      	ldr	r3, [pc, #160]	; (8002b4c <SystemClock_Config+0xc0>)
 8002aaa:	9102      	str	r1, [sp, #8]
 8002aac:	681a      	ldr	r2, [r3, #0]
 8002aae:	f442 4240 	orr.w	r2, r2, #49152	; 0xc000
 8002ab2:	601a      	str	r2, [r3, #0]
 8002ab4:	681b      	ldr	r3, [r3, #0]
 8002ab6:	f403 4340 	and.w	r3, r3, #49152	; 0xc000
 8002aba:	9302      	str	r3, [sp, #8]
 8002abc:	9b02      	ldr	r3, [sp, #8]

    /**Initializes the CPU, AHB and APB busses clocks 
    */
  RCC_OscInitStruct.OscillatorType = RCC_OSCILLATORTYPE_HSE;
 8002abe:	2301      	movs	r3, #1
 8002ac0:	9308      	str	r3, [sp, #32]
  RCC_OscInitStruct.HSEState = RCC_HSE_BYPASS;
 8002ac2:	f44f 23a0 	mov.w	r3, #327680	; 0x50000
 8002ac6:	9309      	str	r3, [sp, #36]	; 0x24
  RCC_OscInitStruct.PLL.PLLState = RCC_PLL_ON;
  RCC_OscInitStruct.PLL.PLLSource = RCC_PLLSOURCE_HSE;
 8002ac8:	f44f 0380 	mov.w	r3, #4194304	; 0x400000
 8002acc:	930f      	str	r3, [sp, #60]	; 0x3c
  RCC_OscInitStruct.PLL.PLLM = 4;
  RCC_OscInitStruct.PLL.PLLN = 168;
 8002ace:	23a8      	movs	r3, #168	; 0xa8
  RCC_OscInitStruct.PLL.PLLState = RCC_PLL_ON;
 8002ad0:	2402      	movs	r4, #2
  RCC_OscInitStruct.PLL.PLLM = 4;
 8002ad2:	2504      	movs	r5, #4
  RCC_OscInitStruct.PLL.PLLN = 168;
 8002ad4:	9311      	str	r3, [sp, #68]	; 0x44
  RCC_OscInitStruct.PLL.PLLP = RCC_PLLP_DIV2;
  RCC_OscInitStruct.PLL.PLLQ = 7;
  RCC_OscInitStruct.PLL.PLLR = 2;
  if (HAL_RCC_OscConfig(&RCC_OscInitStruct) != HAL_OK)
 8002ad6:	a808      	add	r0, sp, #32
  RCC_OscInitStruct.PLL.PLLQ = 7;
 8002ad8:	2307      	movs	r3, #7
  RCC_OscInitStruct.PLL.PLLState = RCC_PLL_ON;
 8002ada:	940e      	str	r4, [sp, #56]	; 0x38
  RCC_OscInitStruct.PLL.PLLM = 4;
 8002adc:	9510      	str	r5, [sp, #64]	; 0x40
  RCC_OscInitStruct.PLL.PLLP = RCC_PLLP_DIV2;
 8002ade:	9412      	str	r4, [sp, #72]	; 0x48
  RCC_OscInitStruct.PLL.PLLQ = 7;
 8002ae0:	9313      	str	r3, [sp, #76]	; 0x4c
  RCC_OscInitStruct.PLL.PLLR = 2;
 8002ae2:	9414      	str	r4, [sp, #80]	; 0x50
  if (HAL_RCC_OscConfig(&RCC_OscInitStruct) != HAL_OK)
 8002ae4:	f7fe fe58 	bl	8001798 <HAL_RCC_OscConfig>
 8002ae8:	b100      	cbz	r0, 8002aec <SystemClock_Config+0x60>
 8002aea:	e7fe      	b.n	8002aea <SystemClock_Config+0x5e>
    _Error_Handler(__FILE__, __LINE__);
  }

    /**Initializes the CPU, AHB and APB busses clocks 
    */
  RCC_ClkInitStruct.ClockType = RCC_CLOCKTYPE_HCLK|RCC_CLOCKTYPE_SYSCLK
 8002aec:	230f      	movs	r3, #15
 8002aee:	9303      	str	r3, [sp, #12]
                              |RCC_CLOCKTYPE_PCLK1|RCC_CLOCKTYPE_PCLK2;
  RCC_ClkInitStruct.SYSCLKSource = RCC_SYSCLKSOURCE_PLLCLK;
  RCC_ClkInitStruct.AHBCLKDivider = RCC_SYSCLK_DIV1;
  RCC_ClkInitStruct.APB1CLKDivider = RCC_HCLK_DIV4;
 8002af0:	f44f 53a0 	mov.w	r3, #5120	; 0x1400
  RCC_ClkInitStruct.AHBCLKDivider = RCC_SYSCLK_DIV1;
 8002af4:	9005      	str	r0, [sp, #20]
  RCC_ClkInitStruct.APB1CLKDivider = RCC_HCLK_DIV4;
 8002af6:	9306      	str	r3, [sp, #24]
  RCC_ClkInitStruct.APB2CLKDivider = RCC_HCLK_DIV2;

  if (HAL_RCC_ClockConfig(&RCC_ClkInitStruct, FLASH_LATENCY_5) != HAL_OK)
 8002af8:	2105      	movs	r1, #5
  RCC_ClkInitStruct.APB2CLKDivider = RCC_HCLK_DIV2;
 8002afa:	f44f 5380 	mov.w	r3, #4096	; 0x1000
  if (HAL_RCC_ClockConfig(&RCC_ClkInitStruct, FLASH_LATENCY_5) != HAL_OK)
 8002afe:	a803      	add	r0, sp, #12
  RCC_ClkInitStruct.SYSCLKSource = RCC_SYSCLKSOURCE_PLLCLK;
 8002b00:	9404      	str	r4, [sp, #16]
  RCC_ClkInitStruct.APB2CLKDivider = RCC_HCLK_DIV2;
 8002b02:	9307      	str	r3, [sp, #28]
  if (HAL_RCC_ClockConfig(&RCC_ClkInitStruct, FLASH_LATENCY_5) != HAL_OK)
 8002b04:	f7fe fb58 	bl	80011b8 <HAL_RCC_ClockConfig>
 8002b08:	b100      	cbz	r0, 8002b0c <SystemClock_Config+0x80>
 8002b0a:	e7fe      	b.n	8002b0a <SystemClock_Config+0x7e>
  {
    _Error_Handler(__FILE__, __LINE__);
  }

  PeriphClkInitStruct.PeriphClockSelection = RCC_PERIPHCLK_CLK48;
 8002b0c:	f44f 7380 	mov.w	r3, #256	; 0x100
  PeriphClkInitStruct.Clk48ClockSelection = RCC_CLK48CLKSOURCE_PLLQ;
 8002b10:	902a      	str	r0, [sp, #168]	; 0xa8
  if (HAL_RCCEx_PeriphCLKConfig(&PeriphClkInitStruct) != HAL_OK)
 8002b12:	a815      	add	r0, sp, #84	; 0x54
  PeriphClkInitStruct.PeriphClockSelection = RCC_PERIPHCLK_CLK48;
 8002b14:	9315      	str	r3, [sp, #84]	; 0x54
  if (HAL_RCCEx_PeriphCLKConfig(&PeriphClkInitStruct) != HAL_OK)
 8002b16:	f7fe fbef 	bl	80012f8 <HAL_RCCEx_PeriphCLKConfig>
 8002b1a:	4604      	mov	r4, r0
 8002b1c:	b100      	cbz	r0, 8002b20 <SystemClock_Config+0x94>
 8002b1e:	e7fe      	b.n	8002b1e <SystemClock_Config+0x92>
    _Error_Handler(__FILE__, __LINE__);
  }

    /**Configure the Systick interrupt time 
    */
  HAL_SYSTICK_Config(HAL_RCC_GetHCLKFreq()/1000);
 8002b20:	f7fe fbe4 	bl	80012ec <HAL_RCC_GetHCLKFreq>
 8002b24:	f44f 737a 	mov.w	r3, #1000	; 0x3e8
 8002b28:	fbb0 f0f3 	udiv	r0, r0, r3
 8002b2c:	f7fd fda8 	bl	8000680 <HAL_SYSTICK_Config>

    /**Configure the Systick 
    */
  HAL_SYSTICK_CLKSourceConfig(SYSTICK_CLKSOURCE_HCLK);
 8002b30:	4628      	mov	r0, r5
 8002b32:	f7fd fdbb 	bl	80006ac <HAL_SYSTICK_CLKSourceConfig>

  /* SysTick_IRQn interrupt configuration */
  HAL_NVIC_SetPriority(SysTick_IRQn, 0, 0);
 8002b36:	4622      	mov	r2, r4
 8002b38:	4621      	mov	r1, r4
 8002b3a:	f04f 30ff 	mov.w	r0, #4294967295
 8002b3e:	f7fd fd5f 	bl	8000600 <HAL_NVIC_SetPriority>
}
 8002b42:	b02d      	add	sp, #180	; 0xb4
 8002b44:	bd30      	pop	{r4, r5, pc}
 8002b46:	bf00      	nop
 8002b48:	40023800 	.word	0x40023800
 8002b4c:	40007000 	.word	0x40007000

08002b50 <main>:
{
 8002b50:	b580      	push	{r7, lr}
 8002b52:	b088      	sub	sp, #32
{

  GPIO_InitTypeDef GPIO_InitStruct;

  /* GPIO Ports Clock Enable */
  __HAL_RCC_GPIOC_CLK_ENABLE();
 8002b54:	2400      	movs	r4, #0
  HAL_Init();
 8002b56:	f7fd fd01 	bl	800055c <HAL_Init>
  SystemClock_Config();
 8002b5a:	f7ff ff97 	bl	8002a8c <SystemClock_Config>
  __HAL_RCC_GPIOC_CLK_ENABLE();
 8002b5e:	4b2a      	ldr	r3, [pc, #168]	; (8002c08 <main+0xb8>)
 8002b60:	9400      	str	r4, [sp, #0]
 8002b62:	6b1a      	ldr	r2, [r3, #48]	; 0x30

  /*Configure GPIO pin : PC13 */
  GPIO_InitStruct.Pin = GPIO_PIN_13;
  GPIO_InitStruct.Mode = GPIO_MODE_INPUT;
  GPIO_InitStruct.Pull = GPIO_NOPULL;
  HAL_GPIO_Init(GPIOC, &GPIO_InitStruct);
 8002b64:	4829      	ldr	r0, [pc, #164]	; (8002c0c <main+0xbc>)
  if(HAL_GPIO_ReadPin(GPIOC,GPIO_PIN_13)==GPIO_PIN_SET)    {
 8002b66:	4f29      	ldr	r7, [pc, #164]	; (8002c0c <main+0xbc>)
	  USBD_HID_SendReport(&hUsbDeviceFS,buffer,8);
 8002b68:	4d29      	ldr	r5, [pc, #164]	; (8002c10 <main+0xc0>)
  __HAL_RCC_GPIOC_CLK_ENABLE();
 8002b6a:	f042 0204 	orr.w	r2, r2, #4
 8002b6e:	631a      	str	r2, [r3, #48]	; 0x30
 8002b70:	6b1a      	ldr	r2, [r3, #48]	; 0x30
 8002b72:	f002 0204 	and.w	r2, r2, #4
 8002b76:	9200      	str	r2, [sp, #0]
 8002b78:	9a00      	ldr	r2, [sp, #0]
  __HAL_RCC_GPIOH_CLK_ENABLE();
 8002b7a:	9401      	str	r4, [sp, #4]
 8002b7c:	6b1a      	ldr	r2, [r3, #48]	; 0x30
 8002b7e:	f042 0280 	orr.w	r2, r2, #128	; 0x80
 8002b82:	631a      	str	r2, [r3, #48]	; 0x30
 8002b84:	6b1a      	ldr	r2, [r3, #48]	; 0x30
 8002b86:	f002 0280 	and.w	r2, r2, #128	; 0x80
 8002b8a:	9201      	str	r2, [sp, #4]
 8002b8c:	9a01      	ldr	r2, [sp, #4]
  __HAL_RCC_GPIOA_CLK_ENABLE();
 8002b8e:	9402      	str	r4, [sp, #8]
 8002b90:	6b1a      	ldr	r2, [r3, #48]	; 0x30
 8002b92:	f042 0201 	orr.w	r2, r2, #1
 8002b96:	631a      	str	r2, [r3, #48]	; 0x30
 8002b98:	6b1b      	ldr	r3, [r3, #48]	; 0x30
  GPIO_InitStruct.Mode = GPIO_MODE_INPUT;
 8002b9a:	9404      	str	r4, [sp, #16]
  __HAL_RCC_GPIOA_CLK_ENABLE();
 8002b9c:	f003 0301 	and.w	r3, r3, #1
 8002ba0:	9302      	str	r3, [sp, #8]
 8002ba2:	9b02      	ldr	r3, [sp, #8]
  GPIO_InitStruct.Pull = GPIO_NOPULL;
 8002ba4:	9405      	str	r4, [sp, #20]
  GPIO_InitStruct.Pin = GPIO_PIN_13;
 8002ba6:	f44f 5300 	mov.w	r3, #8192	; 0x2000
  HAL_GPIO_Init(GPIOC, &GPIO_InitStruct);
 8002baa:	a903      	add	r1, sp, #12
  GPIO_InitStruct.Pin = GPIO_PIN_13;
 8002bac:	9303      	str	r3, [sp, #12]
  HAL_GPIO_Init(GPIOC, &GPIO_InitStruct);
 8002bae:	f7fd fd8f 	bl	80006d0 <HAL_GPIO_Init>
  MX_USB_DEVICE_Init();
 8002bb2:	f000 f89d 	bl	8002cf0 <MX_USB_DEVICE_Init>
  buffer[0]=1;//reportID
 8002bb6:	4b17      	ldr	r3, [pc, #92]	; (8002c14 <main+0xc4>)
 8002bb8:	2201      	movs	r2, #1
  buffer[1]=0;//modifier
 8002bba:	705c      	strb	r4, [r3, #1]
  buffer[2]=0;//OEM
 8002bbc:	709c      	strb	r4, [r3, #2]
  buffer[3]=0;//keycode data
 8002bbe:	70dc      	strb	r4, [r3, #3]
  buffer[4]=0;//keycode data
 8002bc0:	711c      	strb	r4, [r3, #4]
  buffer[5]=0;//keycode data
 8002bc2:	715c      	strb	r4, [r3, #5]
  buffer[6]=0;//keycode data
 8002bc4:	719c      	strb	r4, [r3, #6]
  buffer[7]=0;//keycode data
 8002bc6:	71dc      	strb	r4, [r3, #7]
  buffer[0]=1;//reportID
 8002bc8:	701a      	strb	r2, [r3, #0]
 8002bca:	461c      	mov	r4, r3
	  USBD_HID_SendReport(&hUsbDeviceFS,buffer,8);
 8002bcc:	461e      	mov	r6, r3
  if(HAL_GPIO_ReadPin(GPIOC,GPIO_PIN_13)==GPIO_PIN_SET)    {
 8002bce:	f44f 5100 	mov.w	r1, #8192	; 0x2000
 8002bd2:	4638      	mov	r0, r7
 8002bd4:	f7fd fe56 	bl	8000884 <HAL_GPIO_ReadPin>
 8002bd8:	2801      	cmp	r0, #1
 8002bda:	d1f8      	bne.n	8002bce <main+0x7e>
	  buffer[3]=0x4E;//keycode data
 8002bdc:	234e      	movs	r3, #78	; 0x4e
	  USBD_HID_SendReport(&hUsbDeviceFS,buffer,8);
 8002bde:	4631      	mov	r1, r6
 8002be0:	2208      	movs	r2, #8
 8002be2:	4628      	mov	r0, r5
	  buffer[3]=0x4E;//keycode data
 8002be4:	70e3      	strb	r3, [r4, #3]
	  USBD_HID_SendReport(&hUsbDeviceFS,buffer,8);
 8002be6:	f7ff fc19 	bl	800241c <USBD_HID_SendReport>
	  HAL_Delay(100);
 8002bea:	2064      	movs	r0, #100	; 0x64
 8002bec:	f7fd fce2 	bl	80005b4 <HAL_Delay>
	  buffer[3]=0x0;//keycode data
 8002bf0:	2300      	movs	r3, #0
	  USBD_HID_SendReport(&hUsbDeviceFS,buffer,8);
 8002bf2:	2208      	movs	r2, #8
 8002bf4:	4631      	mov	r1, r6
 8002bf6:	4628      	mov	r0, r5
	  buffer[3]=0x0;//keycode data
 8002bf8:	70e3      	strb	r3, [r4, #3]
	  USBD_HID_SendReport(&hUsbDeviceFS,buffer,8);
 8002bfa:	f7ff fc0f 	bl	800241c <USBD_HID_SendReport>
	  HAL_Delay(100);
 8002bfe:	2064      	movs	r0, #100	; 0x64
 8002c00:	f7fd fcd8 	bl	80005b4 <HAL_Delay>
 8002c04:	e7e3      	b.n	8002bce <main+0x7e>
 8002c06:	bf00      	nop
 8002c08:	40023800 	.word	0x40023800
 8002c0c:	40020800 	.word	0x40020800
 8002c10:	2000021c 	.word	0x2000021c
 8002c14:	20000214 	.word	0x20000214

08002c18 <_Error_Handler>:
  * @param  file: The file name as string.
  * @param  line: The line in file as a number.
  * @retval None
  */
void _Error_Handler(char *file, int line)
{
 8002c18:	e7fe      	b.n	8002c18 <_Error_Handler>

08002c1a <HAL_MspInit>:
/* USER CODE END 0 */
/**
  * Initializes the Global MSP.
  */
void HAL_MspInit(void)
{
 8002c1a:	b508      	push	{r3, lr}
  /* USER CODE BEGIN MspInit 0 */

  /* USER CODE END MspInit 0 */

  HAL_NVIC_SetPriorityGrouping(NVIC_PRIORITYGROUP_4);
 8002c1c:	2003      	movs	r0, #3
 8002c1e:	f7fd fcdd 	bl	80005dc <HAL_NVIC_SetPriorityGrouping>

  /* System interrupt init*/
  /* MemoryManagement_IRQn interrupt configuration */
  HAL_NVIC_SetPriority(MemoryManagement_IRQn, 0, 0);
 8002c22:	2200      	movs	r2, #0
 8002c24:	4611      	mov	r1, r2
 8002c26:	f06f 000b 	mvn.w	r0, #11
 8002c2a:	f7fd fce9 	bl	8000600 <HAL_NVIC_SetPriority>
  /* BusFault_IRQn interrupt configuration */
  HAL_NVIC_SetPriority(BusFault_IRQn, 0, 0);
 8002c2e:	2200      	movs	r2, #0
 8002c30:	4611      	mov	r1, r2
 8002c32:	f06f 000a 	mvn.w	r0, #10
 8002c36:	f7fd fce3 	bl	8000600 <HAL_NVIC_SetPriority>
  /* UsageFault_IRQn interrupt configuration */
  HAL_NVIC_SetPriority(UsageFault_IRQn, 0, 0);
 8002c3a:	2200      	movs	r2, #0
 8002c3c:	4611      	mov	r1, r2
 8002c3e:	f06f 0009 	mvn.w	r0, #9
 8002c42:	f7fd fcdd 	bl	8000600 <HAL_NVIC_SetPriority>
  /* SVCall_IRQn interrupt configuration */
  HAL_NVIC_SetPriority(SVCall_IRQn, 0, 0);
 8002c46:	2200      	movs	r2, #0
 8002c48:	4611      	mov	r1, r2
 8002c4a:	f06f 0004 	mvn.w	r0, #4
 8002c4e:	f7fd fcd7 	bl	8000600 <HAL_NVIC_SetPriority>
  /* DebugMonitor_IRQn interrupt configuration */
  HAL_NVIC_SetPriority(DebugMonitor_IRQn, 0, 0);
 8002c52:	2200      	movs	r2, #0
 8002c54:	4611      	mov	r1, r2
 8002c56:	f06f 0003 	mvn.w	r0, #3
 8002c5a:	f7fd fcd1 	bl	8000600 <HAL_NVIC_SetPriority>
  /* PendSV_IRQn interrupt configuration */
  HAL_NVIC_SetPriority(PendSV_IRQn, 0, 0);
 8002c5e:	2200      	movs	r2, #0
 8002c60:	4611      	mov	r1, r2
 8002c62:	f06f 0001 	mvn.w	r0, #1
 8002c66:	f7fd fccb 	bl	8000600 <HAL_NVIC_SetPriority>
  /* SysTick_IRQn interrupt configuration */
  HAL_NVIC_SetPriority(SysTick_IRQn, 0, 0);
 8002c6a:	2200      	movs	r2, #0
 8002c6c:	4611      	mov	r1, r2
 8002c6e:	f04f 30ff 	mov.w	r0, #4294967295

  /* USER CODE BEGIN MspInit 1 */

  /* USER CODE END MspInit 1 */
}
 8002c72:	e8bd 4008 	ldmia.w	sp!, {r3, lr}
  HAL_NVIC_SetPriority(SysTick_IRQn, 0, 0);
 8002c76:	f7fd bcc3 	b.w	8000600 <HAL_NVIC_SetPriority>

08002c7a <NMI_Handler>:
 8002c7a:	4770      	bx	lr

08002c7c <HardFault_Handler>:

/**
* @brief This function handles Hard fault interrupt.
*/
void HardFault_Handler(void)
{
 8002c7c:	e7fe      	b.n	8002c7c <HardFault_Handler>

08002c7e <MemManage_Handler>:

/**
* @brief This function handles Memory management fault.
*/
void MemManage_Handler(void)
{
 8002c7e:	e7fe      	b.n	8002c7e <MemManage_Handler>

08002c80 <BusFault_Handler>:

/**
* @brief This function handles Pre-fetch fault, memory access fault.
*/
void BusFault_Handler(void)
{
 8002c80:	e7fe      	b.n	8002c80 <BusFault_Handler>

08002c82 <UsageFault_Handler>:

/**
* @brief This function handles Undefined instruction or illegal state.
*/
void UsageFault_Handler(void)
{
 8002c82:	e7fe      	b.n	8002c82 <UsageFault_Handler>

08002c84 <SVC_Handler>:
 8002c84:	4770      	bx	lr

08002c86 <DebugMon_Handler>:
 8002c86:	4770      	bx	lr

08002c88 <PendSV_Handler>:

/**
* @brief This function handles Pendable request for system service.
*/
void PendSV_Handler(void)
{
 8002c88:	4770      	bx	lr

08002c8a <SysTick_Handler>:

/**
* @brief This function handles System tick timer.
*/
void SysTick_Handler(void)
{
 8002c8a:	b508      	push	{r3, lr}
  /* USER CODE BEGIN SysTick_IRQn 0 */

  /* USER CODE END SysTick_IRQn 0 */
  HAL_IncTick();
 8002c8c:	f7fd fc80 	bl	8000590 <HAL_IncTick>
  HAL_SYSTICK_IRQHandler();
  /* USER CODE BEGIN SysTick_IRQn 1 */

  /* USER CODE END SysTick_IRQn 1 */
}
 8002c90:	e8bd 4008 	ldmia.w	sp!, {r3, lr}
  HAL_SYSTICK_IRQHandler();
 8002c94:	f7fd bd17 	b.w	80006c6 <HAL_SYSTICK_IRQHandler>

08002c98 <OTG_FS_IRQHandler>:
void OTG_FS_IRQHandler(void)
{
  /* USER CODE BEGIN OTG_FS_IRQn 0 */

  /* USER CODE END OTG_FS_IRQn 0 */
  HAL_PCD_IRQHandler(&hpcd_USB_OTG_FS);
 8002c98:	4801      	ldr	r0, [pc, #4]	; (8002ca0 <OTG_FS_IRQHandler+0x8>)
 8002c9a:	f7fd be81 	b.w	80009a0 <HAL_PCD_IRQHandler>
 8002c9e:	bf00      	nop
 8002ca0:	20000440 	.word	0x20000440

08002ca4 <SystemInit>:
  */
void SystemInit(void)
{
  /* FPU settings ------------------------------------------------------------*/
  #if (__FPU_PRESENT == 1) && (__FPU_USED == 1)
    SCB->CPACR |= ((3UL << 10*2)|(3UL << 11*2));  /* set CP10 and CP11 Full Access */
 8002ca4:	490f      	ldr	r1, [pc, #60]	; (8002ce4 <SystemInit+0x40>)
 8002ca6:	f8d1 3088 	ldr.w	r3, [r1, #136]	; 0x88
 8002caa:	f443 0370 	orr.w	r3, r3, #15728640	; 0xf00000
 8002cae:	f8c1 3088 	str.w	r3, [r1, #136]	; 0x88
  #endif
  /* Reset the RCC clock configuration to the default reset state ------------*/
  /* Set HSION bit */
  RCC->CR |= (uint32_t)0x00000001;
 8002cb2:	4b0d      	ldr	r3, [pc, #52]	; (8002ce8 <SystemInit+0x44>)
 8002cb4:	681a      	ldr	r2, [r3, #0]

  /* Reset CFGR register */
  RCC->CFGR = 0x00000000;
 8002cb6:	2000      	movs	r0, #0
  RCC->CR |= (uint32_t)0x00000001;
 8002cb8:	f042 0201 	orr.w	r2, r2, #1
 8002cbc:	601a      	str	r2, [r3, #0]
  RCC->CFGR = 0x00000000;
 8002cbe:	6098      	str	r0, [r3, #8]

  /* Reset HSEON, CSSON and PLLON bits */
  RCC->CR &= (uint32_t)0xFEF6FFFF;
 8002cc0:	681a      	ldr	r2, [r3, #0]
 8002cc2:	f022 7284 	bic.w	r2, r2, #17301504	; 0x1080000
 8002cc6:	f422 3280 	bic.w	r2, r2, #65536	; 0x10000
 8002cca:	601a      	str	r2, [r3, #0]

  /* Reset PLLCFGR register */
  RCC->PLLCFGR = 0x24003010;
 8002ccc:	4a07      	ldr	r2, [pc, #28]	; (8002cec <SystemInit+0x48>)
 8002cce:	605a      	str	r2, [r3, #4]

  /* Reset HSEBYP bit */
  RCC->CR &= (uint32_t)0xFFFBFFFF;
 8002cd0:	681a      	ldr	r2, [r3, #0]
 8002cd2:	f422 2280 	bic.w	r2, r2, #262144	; 0x40000
 8002cd6:	601a      	str	r2, [r3, #0]

  /* Disable all interrupts */
  RCC->CIR = 0x00000000;
 8002cd8:	60d8      	str	r0, [r3, #12]

  /* Configure the Vector Table location add offset address ------------------*/
#ifdef VECT_TAB_SRAM
  SCB->VTOR = SRAM_BASE | VECT_TAB_OFFSET; /* Vector Table Relocation in Internal SRAM */
#else
  SCB->VTOR = FLASH_BASE | VECT_TAB_OFFSET; /* Vector Table Relocation in Internal FLASH */
 8002cda:	f04f 6300 	mov.w	r3, #134217728	; 0x8000000
 8002cde:	608b      	str	r3, [r1, #8]
 8002ce0:	4770      	bx	lr
 8002ce2:	bf00      	nop
 8002ce4:	e000ed00 	.word	0xe000ed00
 8002ce8:	40023800 	.word	0x40023800
 8002cec:	24003010 	.word	0x24003010

08002cf0 <MX_USB_DEVICE_Init>:
/**
  * Init USB device Library, add supported class and start the library
  * @retval None
  */
void MX_USB_DEVICE_Init(void)
{
 8002cf0:	b510      	push	{r4, lr}
  /* USER CODE BEGIN USB_DEVICE_Init_PreTreatment */
  
  /* USER CODE END USB_DEVICE_Init_PreTreatment */
  
  /* Init Device Library, add supported class and start the library. */
  USBD_Init(&hUsbDeviceFS, &FS_Desc, DEVICE_FS);
 8002cf2:	4c07      	ldr	r4, [pc, #28]	; (8002d10 <MX_USB_DEVICE_Init+0x20>)
 8002cf4:	4907      	ldr	r1, [pc, #28]	; (8002d14 <MX_USB_DEVICE_Init+0x24>)
 8002cf6:	2200      	movs	r2, #0
 8002cf8:	4620      	mov	r0, r4
 8002cfa:	f7ff fba1 	bl	8002440 <USBD_Init>

  USBD_RegisterClass(&hUsbDeviceFS, &USBD_HID);
 8002cfe:	4620      	mov	r0, r4
 8002d00:	4905      	ldr	r1, [pc, #20]	; (8002d18 <MX_USB_DEVICE_Init+0x28>)
 8002d02:	f7ff fbb2 	bl	800246a <USBD_RegisterClass>

  USBD_Start(&hUsbDeviceFS);
 8002d06:	4620      	mov	r0, r4

  /* USER CODE BEGIN USB_DEVICE_Init_PostTreatment */
  
  /* USER CODE END USB_DEVICE_Init_PostTreatment */
}
 8002d08:	e8bd 4010 	ldmia.w	sp!, {r4, lr}
  USBD_Start(&hUsbDeviceFS);
 8002d0c:	f7ff bbb4 	b.w	8002478 <USBD_Start>
 8002d10:	2000021c 	.word	0x2000021c
 8002d14:	2000013c 	.word	0x2000013c
 8002d18:	200000c4 	.word	0x200000c4

08002d1c <HAL_PCD_MspInit>:
                       LL Driver Callbacks (PCD -> USB Device Library)
*******************************************************************************/
/* MSP Init */

void HAL_PCD_MspInit(PCD_HandleTypeDef* pcdHandle)
{
 8002d1c:	b510      	push	{r4, lr}
  GPIO_InitTypeDef GPIO_InitStruct;
  if(pcdHandle->Instance==USB_OTG_FS)
 8002d1e:	6803      	ldr	r3, [r0, #0]
 8002d20:	f1b3 4fa0 	cmp.w	r3, #1342177280	; 0x50000000
{
 8002d24:	b086      	sub	sp, #24
  if(pcdHandle->Instance==USB_OTG_FS)
 8002d26:	d125      	bne.n	8002d74 <HAL_PCD_MspInit+0x58>
  
    /**USB_OTG_FS GPIO Configuration    
    PA11     ------> USB_OTG_FS_DM
    PA12     ------> USB_OTG_FS_DP 
    */
    GPIO_InitStruct.Pin = GPIO_PIN_11|GPIO_PIN_12;
 8002d28:	f44f 53c0 	mov.w	r3, #6144	; 0x1800
 8002d2c:	9301      	str	r3, [sp, #4]
    GPIO_InitStruct.Mode = GPIO_MODE_AF_PP;
 8002d2e:	2302      	movs	r3, #2
 8002d30:	9302      	str	r3, [sp, #8]
    GPIO_InitStruct.Pull = GPIO_NOPULL;
    GPIO_InitStruct.Speed = GPIO_SPEED_FREQ_VERY_HIGH;
 8002d32:	2303      	movs	r3, #3
    GPIO_InitStruct.Pull = GPIO_NOPULL;
 8002d34:	2400      	movs	r4, #0
    GPIO_InitStruct.Speed = GPIO_SPEED_FREQ_VERY_HIGH;
 8002d36:	9304      	str	r3, [sp, #16]
    GPIO_InitStruct.Alternate = GPIO_AF10_OTG_FS;
    HAL_GPIO_Init(GPIOA, &GPIO_InitStruct);
 8002d38:	a901      	add	r1, sp, #4
    GPIO_InitStruct.Alternate = GPIO_AF10_OTG_FS;
 8002d3a:	230a      	movs	r3, #10
    HAL_GPIO_Init(GPIOA, &GPIO_InitStruct);
 8002d3c:	480e      	ldr	r0, [pc, #56]	; (8002d78 <HAL_PCD_MspInit+0x5c>)
    GPIO_InitStruct.Alternate = GPIO_AF10_OTG_FS;
 8002d3e:	9305      	str	r3, [sp, #20]
    GPIO_InitStruct.Pull = GPIO_NOPULL;
 8002d40:	9403      	str	r4, [sp, #12]
    HAL_GPIO_Init(GPIOA, &GPIO_InitStruct);
 8002d42:	f7fd fcc5 	bl	80006d0 <HAL_GPIO_Init>

    /* Peripheral clock enable */
    __HAL_RCC_USB_OTG_FS_CLK_ENABLE();
 8002d46:	4b0d      	ldr	r3, [pc, #52]	; (8002d7c <HAL_PCD_MspInit+0x60>)
 8002d48:	6b5a      	ldr	r2, [r3, #52]	; 0x34
 8002d4a:	f042 0280 	orr.w	r2, r2, #128	; 0x80
 8002d4e:	635a      	str	r2, [r3, #52]	; 0x34
 8002d50:	9400      	str	r4, [sp, #0]
 8002d52:	6c5a      	ldr	r2, [r3, #68]	; 0x44
 8002d54:	f442 4280 	orr.w	r2, r2, #16384	; 0x4000
 8002d58:	645a      	str	r2, [r3, #68]	; 0x44
 8002d5a:	6c5b      	ldr	r3, [r3, #68]	; 0x44
 8002d5c:	f403 4380 	and.w	r3, r3, #16384	; 0x4000
 8002d60:	9300      	str	r3, [sp, #0]

    /* Peripheral interrupt init */
    HAL_NVIC_SetPriority(OTG_FS_IRQn, 0, 0);
 8002d62:	2043      	movs	r0, #67	; 0x43
 8002d64:	4622      	mov	r2, r4
 8002d66:	4621      	mov	r1, r4
    __HAL_RCC_USB_OTG_FS_CLK_ENABLE();
 8002d68:	9b00      	ldr	r3, [sp, #0]
    HAL_NVIC_SetPriority(OTG_FS_IRQn, 0, 0);
 8002d6a:	f7fd fc49 	bl	8000600 <HAL_NVIC_SetPriority>
    HAL_NVIC_EnableIRQ(OTG_FS_IRQn);
 8002d6e:	2043      	movs	r0, #67	; 0x43
 8002d70:	f7fd fc7a 	bl	8000668 <HAL_NVIC_EnableIRQ>
  /* USER CODE BEGIN USB_OTG_FS_MspInit 1 */

  /* USER CODE END USB_OTG_FS_MspInit 1 */
  }
}
 8002d74:	b006      	add	sp, #24
 8002d76:	bd10      	pop	{r4, pc}
 8002d78:	40020000 	.word	0x40020000
 8002d7c:	40023800 	.word	0x40023800

08002d80 <HAL_PCD_SetupStageCallback>:
  * @param  hpcd: PCD handle
  * @retval None
  */
void HAL_PCD_SetupStageCallback(PCD_HandleTypeDef *hpcd)
{
  USBD_LL_SetupStage((USBD_HandleTypeDef*)hpcd->pData, (uint8_t *)hpcd->Setup);
 8002d80:	f500 716f 	add.w	r1, r0, #956	; 0x3bc
 8002d84:	f8d0 03f8 	ldr.w	r0, [r0, #1016]	; 0x3f8
 8002d88:	f7ff bb8d 	b.w	80024a6 <USBD_LL_SetupStage>

08002d8c <HAL_PCD_DataOutStageCallback>:
  * @param  epnum: Endpoint number
  * @retval None
  */
void HAL_PCD_DataOutStageCallback(PCD_HandleTypeDef *hpcd, uint8_t epnum)
{
  USBD_LL_DataOutStage((USBD_HandleTypeDef*)hpcd->pData, epnum, hpcd->OUT_ep[epnum].xfer_buff);
 8002d8c:	231c      	movs	r3, #28
 8002d8e:	fb03 0301 	mla	r3, r3, r1, r0
 8002d92:	f8d0 03f8 	ldr.w	r0, [r0, #1016]	; 0x3f8
 8002d96:	f8d3 2204 	ldr.w	r2, [r3, #516]	; 0x204
 8002d9a:	f7ff bbb1 	b.w	8002500 <USBD_LL_DataOutStage>

08002d9e <HAL_PCD_DataInStageCallback>:
  * @param  epnum: Endpoint number
  * @retval None
  */
void HAL_PCD_DataInStageCallback(PCD_HandleTypeDef *hpcd, uint8_t epnum)
{
  USBD_LL_DataInStage((USBD_HandleTypeDef*)hpcd->pData, epnum, hpcd->IN_ep[epnum].xfer_buff);
 8002d9e:	231c      	movs	r3, #28
 8002da0:	fb03 0301 	mla	r3, r3, r1, r0
 8002da4:	f8d0 03f8 	ldr.w	r0, [r0, #1016]	; 0x3f8
 8002da8:	6c5a      	ldr	r2, [r3, #68]	; 0x44
 8002daa:	f7ff bbdb 	b.w	8002564 <USBD_LL_DataInStage>

08002dae <HAL_PCD_SOFCallback>:
  * @param  hpcd: PCD handle
  * @retval None
  */
void HAL_PCD_SOFCallback(PCD_HandleTypeDef *hpcd)
{
  USBD_LL_SOF((USBD_HandleTypeDef*)hpcd->pData);
 8002dae:	f8d0 03f8 	ldr.w	r0, [r0, #1016]	; 0x3f8
 8002db2:	f7ff bc57 	b.w	8002664 <USBD_LL_SOF>

08002db6 <HAL_PCD_ResetCallback>:
  * @brief  Reset callback.
  * @param  hpcd: PCD handle
  * @retval None
  */
void HAL_PCD_ResetCallback(PCD_HandleTypeDef *hpcd)
{ 
 8002db6:	b510      	push	{r4, lr}
  USBD_SpeedTypeDef speed = USBD_SPEED_FULL;

  /* Set USB current speed. */
  switch (hpcd->Init.speed)
 8002db8:	68c1      	ldr	r1, [r0, #12]
{ 
 8002dba:	4604      	mov	r4, r0
	
  default:
    speed = USBD_SPEED_FULL;
    break;    
  }
  USBD_LL_SetSpeed((USBD_HandleTypeDef*)hpcd->pData, speed);
 8002dbc:	3100      	adds	r1, #0
 8002dbe:	bf18      	it	ne
 8002dc0:	2101      	movne	r1, #1
 8002dc2:	f8d0 03f8 	ldr.w	r0, [r0, #1016]	; 0x3f8
 8002dc6:	f7ff fc3b 	bl	8002640 <USBD_LL_SetSpeed>
  
  /* Reset Device. */
  USBD_LL_Reset((USBD_HandleTypeDef*)hpcd->pData);
 8002dca:	f8d4 03f8 	ldr.w	r0, [r4, #1016]	; 0x3f8
}
 8002dce:	e8bd 4010 	ldmia.w	sp!, {r4, lr}
  USBD_LL_Reset((USBD_HandleTypeDef*)hpcd->pData);
 8002dd2:	f7ff bc16 	b.w	8002602 <USBD_LL_Reset>
	...

08002dd8 <HAL_PCD_SuspendCallback>:
  * When Low power mode is enabled the debug cannot be used (IAR, Keil doesn't support it)
  * @param  hpcd: PCD handle
  * @retval None
  */
void HAL_PCD_SuspendCallback(PCD_HandleTypeDef *hpcd)
{
 8002dd8:	b510      	push	{r4, lr}
 8002dda:	4604      	mov	r4, r0
  /* Inform USB library that core enters in suspend Mode. */
  USBD_LL_Suspend((USBD_HandleTypeDef*)hpcd->pData);
 8002ddc:	f8d0 03f8 	ldr.w	r0, [r0, #1016]	; 0x3f8
 8002de0:	f7ff fc31 	bl	8002646 <USBD_LL_Suspend>
  __HAL_PCD_GATE_PHYCLOCK(hpcd);
 8002de4:	6822      	ldr	r2, [r4, #0]
 8002de6:	f8d2 3e00 	ldr.w	r3, [r2, #3584]	; 0xe00
 8002dea:	f043 0301 	orr.w	r3, r3, #1
 8002dee:	f8c2 3e00 	str.w	r3, [r2, #3584]	; 0xe00
  /* Enter in STOP mode. */
  /* USER CODE BEGIN 2 */
  if (hpcd->Init.low_power_enable)
 8002df2:	6a23      	ldr	r3, [r4, #32]
 8002df4:	b123      	cbz	r3, 8002e00 <HAL_PCD_SuspendCallback+0x28>
  {
    /* Set SLEEPDEEP bit and SleepOnExit of Cortex System Control Register. */
    SCB->SCR |= (uint32_t)((uint32_t)(SCB_SCR_SLEEPDEEP_Msk | SCB_SCR_SLEEPONEXIT_Msk));
 8002df6:	4a03      	ldr	r2, [pc, #12]	; (8002e04 <HAL_PCD_SuspendCallback+0x2c>)
 8002df8:	6913      	ldr	r3, [r2, #16]
 8002dfa:	f043 0306 	orr.w	r3, r3, #6
 8002dfe:	6113      	str	r3, [r2, #16]
 8002e00:	bd10      	pop	{r4, pc}
 8002e02:	bf00      	nop
 8002e04:	e000ed00 	.word	0xe000ed00

08002e08 <HAL_PCD_ResumeCallback>:
void HAL_PCD_ResumeCallback(PCD_HandleTypeDef *hpcd)
{
  /* USER CODE BEGIN 3 */

  /* USER CODE END 3 */
  USBD_LL_Resume((USBD_HandleTypeDef*)hpcd->pData);
 8002e08:	f8d0 03f8 	ldr.w	r0, [r0, #1016]	; 0x3f8
 8002e0c:	f7ff bc24 	b.w	8002658 <USBD_LL_Resume>

08002e10 <HAL_PCD_ISOOUTIncompleteCallback>:
  * @param  epnum: Endpoint number
  * @retval None
  */
void HAL_PCD_ISOOUTIncompleteCallback(PCD_HandleTypeDef *hpcd, uint8_t epnum)
{
  USBD_LL_IsoOUTIncomplete((USBD_HandleTypeDef*)hpcd->pData, epnum);
 8002e10:	f8d0 03f8 	ldr.w	r0, [r0, #1016]	; 0x3f8
 8002e14:	f7ff bc34 	b.w	8002680 <USBD_LL_IsoOUTIncomplete>

08002e18 <HAL_PCD_ISOINIncompleteCallback>:
  * @param  epnum: Endpoint number
  * @retval None
  */
void HAL_PCD_ISOINIncompleteCallback(PCD_HandleTypeDef *hpcd, uint8_t epnum)
{
  USBD_LL_IsoINIncomplete((USBD_HandleTypeDef*)hpcd->pData, epnum);
 8002e18:	f8d0 03f8 	ldr.w	r0, [r0, #1016]	; 0x3f8
 8002e1c:	f7ff bc2e 	b.w	800267c <USBD_LL_IsoINIncomplete>

08002e20 <HAL_PCD_ConnectCallback>:
  * @param  hpcd: PCD handle
  * @retval None
  */
void HAL_PCD_ConnectCallback(PCD_HandleTypeDef *hpcd)
{
  USBD_LL_DevConnected((USBD_HandleTypeDef*)hpcd->pData);
 8002e20:	f8d0 03f8 	ldr.w	r0, [r0, #1016]	; 0x3f8
 8002e24:	f7ff bc2e 	b.w	8002684 <USBD_LL_DevConnected>

08002e28 <HAL_PCD_DisconnectCallback>:
  * @param  hpcd: PCD handle
  * @retval None
  */
void HAL_PCD_DisconnectCallback(PCD_HandleTypeDef *hpcd)
{
  USBD_LL_DevDisconnected((USBD_HandleTypeDef*)hpcd->pData);
 8002e28:	f8d0 03f8 	ldr.w	r0, [r0, #1016]	; 0x3f8
 8002e2c:	f7ff bc2c 	b.w	8002688 <USBD_LL_DevDisconnected>

08002e30 <USBD_LL_Init>:
  * @brief  Initializes the low level portion of the device driver.
  * @param  pdev: Device handle
  * @retval USBD status
  */
USBD_StatusTypeDef USBD_LL_Init(USBD_HandleTypeDef *pdev)
{
 8002e30:	b508      	push	{r3, lr}
  /* Init USB Ip. */
  if (pdev->id == DEVICE_FS) {
 8002e32:	7802      	ldrb	r2, [r0, #0]
 8002e34:	bb52      	cbnz	r2, 8002e8c <USBD_LL_Init+0x5c>
  /* Link the driver to the stack. */
  hpcd_USB_OTG_FS.pData = pdev;
 8002e36:	4b16      	ldr	r3, [pc, #88]	; (8002e90 <USBD_LL_Init+0x60>)
  pdev->pData = &hpcd_USB_OTG_FS;
  
  hpcd_USB_OTG_FS.Instance = USB_OTG_FS;
  hpcd_USB_OTG_FS.Init.dev_endpoints = 6;
 8002e38:	2106      	movs	r1, #6
  hpcd_USB_OTG_FS.pData = pdev;
 8002e3a:	f8c3 03f8 	str.w	r0, [r3, #1016]	; 0x3f8
  pdev->pData = &hpcd_USB_OTG_FS;
 8002e3e:	f8c0 3220 	str.w	r3, [r0, #544]	; 0x220
  hpcd_USB_OTG_FS.Init.dev_endpoints = 6;
 8002e42:	f04f 40a0 	mov.w	r0, #1342177280	; 0x50000000
 8002e46:	e883 0003 	stmia.w	r3, {r0, r1}
  hpcd_USB_OTG_FS.Init.speed = PCD_SPEED_FULL;
 8002e4a:	2102      	movs	r1, #2
  hpcd_USB_OTG_FS.Init.Sof_enable = DISABLE;
  hpcd_USB_OTG_FS.Init.low_power_enable = DISABLE;
  hpcd_USB_OTG_FS.Init.lpm_enable = DISABLE;
  hpcd_USB_OTG_FS.Init.vbus_sensing_enable = DISABLE;
  hpcd_USB_OTG_FS.Init.use_dedicated_ep1 = DISABLE;
  if (HAL_PCD_Init(&hpcd_USB_OTG_FS) != HAL_OK)
 8002e4c:	4618      	mov	r0, r3
  hpcd_USB_OTG_FS.Init.speed = PCD_SPEED_FULL;
 8002e4e:	60d9      	str	r1, [r3, #12]
  hpcd_USB_OTG_FS.Init.dma_enable = DISABLE;
 8002e50:	611a      	str	r2, [r3, #16]
  hpcd_USB_OTG_FS.Init.ep0_mps = DEP0CTL_MPS_64;
 8002e52:	615a      	str	r2, [r3, #20]
  hpcd_USB_OTG_FS.Init.phy_itface = PCD_PHY_EMBEDDED;
 8002e54:	6199      	str	r1, [r3, #24]
  hpcd_USB_OTG_FS.Init.Sof_enable = DISABLE;
 8002e56:	61da      	str	r2, [r3, #28]
  hpcd_USB_OTG_FS.Init.low_power_enable = DISABLE;
 8002e58:	621a      	str	r2, [r3, #32]
  hpcd_USB_OTG_FS.Init.lpm_enable = DISABLE;
 8002e5a:	625a      	str	r2, [r3, #36]	; 0x24
  hpcd_USB_OTG_FS.Init.vbus_sensing_enable = DISABLE;
 8002e5c:	62da      	str	r2, [r3, #44]	; 0x2c
  hpcd_USB_OTG_FS.Init.use_dedicated_ep1 = DISABLE;
 8002e5e:	631a      	str	r2, [r3, #48]	; 0x30
  if (HAL_PCD_Init(&hpcd_USB_OTG_FS) != HAL_OK)
 8002e60:	f7fd fd16 	bl	8000890 <HAL_PCD_Init>
 8002e64:	b120      	cbz	r0, 8002e70 <USBD_LL_Init+0x40>
  {
    _Error_Handler(__FILE__, __LINE__);
 8002e66:	f44f 71a5 	mov.w	r1, #330	; 0x14a
 8002e6a:	480a      	ldr	r0, [pc, #40]	; (8002e94 <USBD_LL_Init+0x64>)
 8002e6c:	f7ff fed4 	bl	8002c18 <_Error_Handler>
  }

  HAL_PCDEx_SetRxFiFo(&hpcd_USB_OTG_FS, 0x80);
 8002e70:	2180      	movs	r1, #128	; 0x80
 8002e72:	4807      	ldr	r0, [pc, #28]	; (8002e90 <USBD_LL_Init+0x60>)
 8002e74:	f7fe f989 	bl	800118a <HAL_PCDEx_SetRxFiFo>
  HAL_PCDEx_SetTxFiFo(&hpcd_USB_OTG_FS, 0, 0x40);
 8002e78:	2240      	movs	r2, #64	; 0x40
 8002e7a:	2100      	movs	r1, #0
 8002e7c:	4804      	ldr	r0, [pc, #16]	; (8002e90 <USBD_LL_Init+0x60>)
 8002e7e:	f7fe f963 	bl	8001148 <HAL_PCDEx_SetTxFiFo>
  HAL_PCDEx_SetTxFiFo(&hpcd_USB_OTG_FS, 1, 0x80);
 8002e82:	2280      	movs	r2, #128	; 0x80
 8002e84:	2101      	movs	r1, #1
 8002e86:	4802      	ldr	r0, [pc, #8]	; (8002e90 <USBD_LL_Init+0x60>)
 8002e88:	f7fe f95e 	bl	8001148 <HAL_PCDEx_SetTxFiFo>
  }
  return USBD_OK;
}
 8002e8c:	2000      	movs	r0, #0
 8002e8e:	bd08      	pop	{r3, pc}
 8002e90:	20000440 	.word	0x20000440
 8002e94:	08003338 	.word	0x08003338

08002e98 <USBD_LL_Start>:
  * @brief  Starts the low level portion of the device driver. 
  * @param  pdev: Device handle
  * @retval USBD status
  */
USBD_StatusTypeDef USBD_LL_Start(USBD_HandleTypeDef *pdev)
{
 8002e98:	b508      	push	{r3, lr}
  HAL_StatusTypeDef hal_status = HAL_OK;
  USBD_StatusTypeDef usb_status = USBD_OK;
 
  hal_status = HAL_PCD_Start(pdev->pData);
 8002e9a:	f8d0 0220 	ldr.w	r0, [r0, #544]	; 0x220
 8002e9e:	f7fd fd69 	bl	8000974 <HAL_PCD_Start>
 8002ea2:	2803      	cmp	r0, #3
 8002ea4:	bf9a      	itte	ls
 8002ea6:	4b02      	ldrls	r3, [pc, #8]	; (8002eb0 <USBD_LL_Start+0x18>)
 8002ea8:	5c18      	ldrbls	r0, [r3, r0]
 8002eaa:	2002      	movhi	r0, #2
    default :
      usb_status = USBD_FAIL;
    break;
  }
  return usb_status;
}
 8002eac:	bd08      	pop	{r3, pc}
 8002eae:	bf00      	nop
 8002eb0:	08003334 	.word	0x08003334

08002eb4 <USBD_LL_OpenEP>:
  * @param  ep_type: Endpoint type
  * @param  ep_mps: Endpoint max packet size
  * @retval USBD status
  */
USBD_StatusTypeDef USBD_LL_OpenEP(USBD_HandleTypeDef *pdev, uint8_t ep_addr, uint8_t ep_type, uint16_t ep_mps)
{
 8002eb4:	b510      	push	{r4, lr}
 8002eb6:	461c      	mov	r4, r3
  HAL_StatusTypeDef hal_status = HAL_OK;
  USBD_StatusTypeDef usb_status = USBD_OK;

  hal_status = HAL_PCD_EP_Open(pdev->pData, ep_addr, ep_mps, ep_type);
 8002eb8:	f8d0 0220 	ldr.w	r0, [r0, #544]	; 0x220
 8002ebc:	4613      	mov	r3, r2
 8002ebe:	4622      	mov	r2, r4
 8002ec0:	f7fe f85c 	bl	8000f7c <HAL_PCD_EP_Open>
 8002ec4:	2803      	cmp	r0, #3
 8002ec6:	bf9a      	itte	ls
 8002ec8:	4b01      	ldrls	r3, [pc, #4]	; (8002ed0 <USBD_LL_OpenEP+0x1c>)
 8002eca:	5c18      	ldrbls	r0, [r3, r0]
 8002ecc:	2002      	movhi	r0, #2
    default :
      usb_status = USBD_FAIL;
    break;
  }
  return usb_status;
}
 8002ece:	bd10      	pop	{r4, pc}
 8002ed0:	08003334 	.word	0x08003334

08002ed4 <USBD_LL_CloseEP>:
  * @param  pdev: Device handle
  * @param  ep_addr: Endpoint number
  * @retval USBD status
  */
USBD_StatusTypeDef USBD_LL_CloseEP(USBD_HandleTypeDef *pdev, uint8_t ep_addr)
{
 8002ed4:	b508      	push	{r3, lr}
  HAL_StatusTypeDef hal_status = HAL_OK;
  USBD_StatusTypeDef usb_status = USBD_OK;
  
  hal_status = HAL_PCD_EP_Close(pdev->pData, ep_addr);
 8002ed6:	f8d0 0220 	ldr.w	r0, [r0, #544]	; 0x220
 8002eda:	f7fe f87d 	bl	8000fd8 <HAL_PCD_EP_Close>
 8002ede:	2803      	cmp	r0, #3
 8002ee0:	bf9a      	itte	ls
 8002ee2:	4b02      	ldrls	r3, [pc, #8]	; (8002eec <USBD_LL_CloseEP+0x18>)
 8002ee4:	5c18      	ldrbls	r0, [r3, r0]
 8002ee6:	2002      	movhi	r0, #2
    default :
      usb_status = USBD_FAIL;
    break;
  }
  return usb_status;  
}
 8002ee8:	bd08      	pop	{r3, pc}
 8002eea:	bf00      	nop
 8002eec:	08003334 	.word	0x08003334

08002ef0 <USBD_LL_StallEP>:
  * @param  pdev: Device handle
  * @param  ep_addr: Endpoint number
  * @retval USBD status
  */
USBD_StatusTypeDef USBD_LL_StallEP(USBD_HandleTypeDef *pdev, uint8_t ep_addr)
{
 8002ef0:	b508      	push	{r3, lr}
  HAL_StatusTypeDef hal_status = HAL_OK;
  USBD_StatusTypeDef usb_status = USBD_OK;
  
  hal_status = HAL_PCD_EP_SetStall(pdev->pData, ep_addr);
 8002ef2:	f8d0 0220 	ldr.w	r0, [r0, #544]	; 0x220
 8002ef6:	f7fe f8d6 	bl	80010a6 <HAL_PCD_EP_SetStall>
 8002efa:	2803      	cmp	r0, #3
 8002efc:	bf9a      	itte	ls
 8002efe:	4b02      	ldrls	r3, [pc, #8]	; (8002f08 <USBD_LL_StallEP+0x18>)
 8002f00:	5c18      	ldrbls	r0, [r3, r0]
 8002f02:	2002      	movhi	r0, #2
    default :
      usb_status = USBD_FAIL;
    break;
  }
  return usb_status;  
}
 8002f04:	bd08      	pop	{r3, pc}
 8002f06:	bf00      	nop
 8002f08:	08003334 	.word	0x08003334

08002f0c <USBD_LL_ClearStallEP>:
  * @param  pdev: Device handle
  * @param  ep_addr: Endpoint number
  * @retval USBD status
  */
USBD_StatusTypeDef USBD_LL_ClearStallEP(USBD_HandleTypeDef *pdev, uint8_t ep_addr)
{
 8002f0c:	b508      	push	{r3, lr}
  HAL_StatusTypeDef hal_status = HAL_OK;
  USBD_StatusTypeDef usb_status = USBD_OK;
  
  hal_status = HAL_PCD_EP_ClrStall(pdev->pData, ep_addr);  
 8002f0e:	f8d0 0220 	ldr.w	r0, [r0, #544]	; 0x220
 8002f12:	f7fe f8f4 	bl	80010fe <HAL_PCD_EP_ClrStall>
 8002f16:	2803      	cmp	r0, #3
 8002f18:	bf9a      	itte	ls
 8002f1a:	4b02      	ldrls	r3, [pc, #8]	; (8002f24 <USBD_LL_ClearStallEP+0x18>)
 8002f1c:	5c18      	ldrbls	r0, [r3, r0]
 8002f1e:	2002      	movhi	r0, #2
    default :
      usb_status = USBD_FAIL;
    break;
  }
  return usb_status; 
}
 8002f20:	bd08      	pop	{r3, pc}
 8002f22:	bf00      	nop
 8002f24:	08003334 	.word	0x08003334

08002f28 <USBD_LL_IsStallEP>:
  */
uint8_t USBD_LL_IsStallEP(USBD_HandleTypeDef *pdev, uint8_t ep_addr)
{
  PCD_HandleTypeDef *hpcd = (PCD_HandleTypeDef*) pdev->pData;
  
  if((ep_addr & 0x80) == 0x80)
 8002f28:	f011 0f80 	tst.w	r1, #128	; 0x80
  PCD_HandleTypeDef *hpcd = (PCD_HandleTypeDef*) pdev->pData;
 8002f2c:	f8d0 3220 	ldr.w	r3, [r0, #544]	; 0x220
 8002f30:	f04f 021c 	mov.w	r2, #28
  {
    return hpcd->IN_ep[ep_addr & 0x7F].is_stall; 
 8002f34:	bf1b      	ittet	ne
 8002f36:	f001 017f 	andne.w	r1, r1, #127	; 0x7f
 8002f3a:	fb02 3101 	mlane	r1, r2, r1, r3
  }
  else
  {
    return hpcd->OUT_ep[ep_addr & 0x7F].is_stall; 
 8002f3e:	fb02 3101 	mlaeq	r1, r2, r1, r3
    return hpcd->IN_ep[ep_addr & 0x7F].is_stall; 
 8002f42:	f891 003a 	ldrbne.w	r0, [r1, #58]	; 0x3a
    return hpcd->OUT_ep[ep_addr & 0x7F].is_stall; 
 8002f46:	bf08      	it	eq
 8002f48:	f891 01fa 	ldrbeq.w	r0, [r1, #506]	; 0x1fa
  }
}
 8002f4c:	4770      	bx	lr
	...

08002f50 <USBD_LL_SetUSBAddress>:
  * @param  pdev: Device handle
  * @param  dev_addr: Device address
  * @retval USBD status
  */
USBD_StatusTypeDef USBD_LL_SetUSBAddress(USBD_HandleTypeDef *pdev, uint8_t dev_addr)
{
 8002f50:	b508      	push	{r3, lr}
  HAL_StatusTypeDef hal_status = HAL_OK;
  USBD_StatusTypeDef usb_status = USBD_OK;
  
  hal_status = HAL_PCD_SetAddress(pdev->pData, dev_addr);
 8002f52:	f8d0 0220 	ldr.w	r0, [r0, #544]	; 0x220
 8002f56:	f7fd ffff 	bl	8000f58 <HAL_PCD_SetAddress>
 8002f5a:	2803      	cmp	r0, #3
 8002f5c:	bf9a      	itte	ls
 8002f5e:	4b02      	ldrls	r3, [pc, #8]	; (8002f68 <USBD_LL_SetUSBAddress+0x18>)
 8002f60:	5c18      	ldrbls	r0, [r3, r0]
 8002f62:	2002      	movhi	r0, #2
    default :
      usb_status = USBD_FAIL;
    break;
  }
  return usb_status;  
}
 8002f64:	bd08      	pop	{r3, pc}
 8002f66:	bf00      	nop
 8002f68:	08003334 	.word	0x08003334

08002f6c <USBD_LL_Transmit>:
  * @param  pbuf: Pointer to data to be sent
  * @param  size: Data size    
  * @retval USBD status
  */
USBD_StatusTypeDef USBD_LL_Transmit(USBD_HandleTypeDef *pdev, uint8_t ep_addr, uint8_t *pbuf, uint16_t size)
{
 8002f6c:	b508      	push	{r3, lr}
  HAL_StatusTypeDef hal_status = HAL_OK;
  USBD_StatusTypeDef usb_status = USBD_OK;

  hal_status = HAL_PCD_EP_Transmit(pdev->pData, ep_addr, pbuf, size);
 8002f6e:	f8d0 0220 	ldr.w	r0, [r0, #544]	; 0x220
 8002f72:	f7fe f878 	bl	8001066 <HAL_PCD_EP_Transmit>
 8002f76:	2803      	cmp	r0, #3
 8002f78:	bf9a      	itte	ls
 8002f7a:	4b02      	ldrls	r3, [pc, #8]	; (8002f84 <USBD_LL_Transmit+0x18>)
 8002f7c:	5c18      	ldrbls	r0, [r3, r0]
 8002f7e:	2002      	movhi	r0, #2
    default :
      usb_status = USBD_FAIL;
    break;
  }
  return usb_status;    
}
 8002f80:	bd08      	pop	{r3, pc}
 8002f82:	bf00      	nop
 8002f84:	08003334 	.word	0x08003334

08002f88 <USBD_LL_PrepareReceive>:
  * @param  pbuf: Pointer to data to be received
  * @param  size: Data size
  * @retval USBD status
  */
USBD_StatusTypeDef USBD_LL_PrepareReceive(USBD_HandleTypeDef *pdev, uint8_t ep_addr, uint8_t *pbuf, uint16_t size)
{
 8002f88:	b508      	push	{r3, lr}
  HAL_StatusTypeDef hal_status = HAL_OK;
  USBD_StatusTypeDef usb_status = USBD_OK;

  hal_status = HAL_PCD_EP_Receive(pdev->pData, ep_addr, pbuf, size);
 8002f8a:	f8d0 0220 	ldr.w	r0, [r0, #544]	; 0x220
 8002f8e:	f7fe f846 	bl	800101e <HAL_PCD_EP_Receive>
 8002f92:	2803      	cmp	r0, #3
 8002f94:	bf9a      	itte	ls
 8002f96:	4b02      	ldrls	r3, [pc, #8]	; (8002fa0 <USBD_LL_PrepareReceive+0x18>)
 8002f98:	5c18      	ldrbls	r0, [r3, r0]
 8002f9a:	2002      	movhi	r0, #2
    default :
      usb_status = USBD_FAIL;
    break;
  }
  return usb_status; 
}
 8002f9c:	bd08      	pop	{r3, pc}
 8002f9e:	bf00      	nop
 8002fa0:	08003334 	.word	0x08003334

08002fa4 <HAL_PCDEx_LPM_Callback>:
  * @param  hpcd: PCD handle
  * @param  msg: LPM message
  * @retval None
  */
void HAL_PCDEx_LPM_Callback(PCD_HandleTypeDef *hpcd, PCD_LPM_MsgTypeDef msg)
{
 8002fa4:	b510      	push	{r4, lr}
 8002fa6:	4604      	mov	r4, r0
  switch (msg)
 8002fa8:	b111      	cbz	r1, 8002fb0 <HAL_PCDEx_LPM_Callback+0xc>
 8002faa:	2901      	cmp	r1, #1
 8002fac:	d016      	beq.n	8002fdc <HAL_PCDEx_LPM_Callback+0x38>
 8002fae:	bd10      	pop	{r4, pc}
  {
  case PCD_LPM_L0_ACTIVE:
    if (hpcd->Init.low_power_enable)
 8002fb0:	6a03      	ldr	r3, [r0, #32]
 8002fb2:	b133      	cbz	r3, 8002fc2 <HAL_PCDEx_LPM_Callback+0x1e>
    {
      SystemClock_Config();
 8002fb4:	f7ff fd6a 	bl	8002a8c <SystemClock_Config>
      
      /* Reset SLEEPDEEP bit of Cortex System Control Register. */
      SCB->SCR &= (uint32_t)~((uint32_t)(SCB_SCR_SLEEPDEEP_Msk | SCB_SCR_SLEEPONEXIT_Msk));
 8002fb8:	4a12      	ldr	r2, [pc, #72]	; (8003004 <HAL_PCDEx_LPM_Callback+0x60>)
 8002fba:	6913      	ldr	r3, [r2, #16]
 8002fbc:	f023 0306 	bic.w	r3, r3, #6
 8002fc0:	6113      	str	r3, [r2, #16]
    }
    __HAL_PCD_UNGATE_PHYCLOCK(hpcd);
 8002fc2:	6822      	ldr	r2, [r4, #0]
    USBD_LL_Resume(hpcd->pData);
 8002fc4:	f8d4 03f8 	ldr.w	r0, [r4, #1016]	; 0x3f8
    __HAL_PCD_UNGATE_PHYCLOCK(hpcd);
 8002fc8:	f8d2 3e00 	ldr.w	r3, [r2, #3584]	; 0xe00
 8002fcc:	f023 0301 	bic.w	r3, r3, #1
 8002fd0:	f8c2 3e00 	str.w	r3, [r2, #3584]	; 0xe00
      /* Set SLEEPDEEP bit and SleepOnExit of Cortex System Control Register. */
      SCB->SCR |= (uint32_t)((uint32_t)(SCB_SCR_SLEEPDEEP_Msk | SCB_SCR_SLEEPONEXIT_Msk));
    }
    break;   
  }
}
 8002fd4:	e8bd 4010 	ldmia.w	sp!, {r4, lr}
    USBD_LL_Resume(hpcd->pData);
 8002fd8:	f7ff bb3e 	b.w	8002658 <USBD_LL_Resume>
    __HAL_PCD_GATE_PHYCLOCK(hpcd);
 8002fdc:	6802      	ldr	r2, [r0, #0]
    USBD_LL_Suspend(hpcd->pData);
 8002fde:	f8d0 03f8 	ldr.w	r0, [r0, #1016]	; 0x3f8
    __HAL_PCD_GATE_PHYCLOCK(hpcd);
 8002fe2:	f8d2 3e00 	ldr.w	r3, [r2, #3584]	; 0xe00
 8002fe6:	f043 0301 	orr.w	r3, r3, #1
 8002fea:	f8c2 3e00 	str.w	r3, [r2, #3584]	; 0xe00
    USBD_LL_Suspend(hpcd->pData);
 8002fee:	f7ff fb2a 	bl	8002646 <USBD_LL_Suspend>
    if (hpcd->Init.low_power_enable)
 8002ff2:	6a23      	ldr	r3, [r4, #32]
 8002ff4:	b123      	cbz	r3, 8003000 <HAL_PCDEx_LPM_Callback+0x5c>
      SCB->SCR |= (uint32_t)((uint32_t)(SCB_SCR_SLEEPDEEP_Msk | SCB_SCR_SLEEPONEXIT_Msk));
 8002ff6:	4a03      	ldr	r2, [pc, #12]	; (8003004 <HAL_PCDEx_LPM_Callback+0x60>)
 8002ff8:	6913      	ldr	r3, [r2, #16]
 8002ffa:	f043 0306 	orr.w	r3, r3, #6
 8002ffe:	6113      	str	r3, [r2, #16]
 8003000:	bd10      	pop	{r4, pc}
 8003002:	bf00      	nop
 8003004:	e000ed00 	.word	0xe000ed00

08003008 <USBD_FS_DeviceDescriptor>:
  * @param  length : Pointer to data length variable
  * @retval Pointer to descriptor buffer
  */
uint8_t * USBD_FS_DeviceDescriptor(USBD_SpeedTypeDef speed, uint16_t *length)
{
  *length = sizeof(USBD_FS_DeviceDesc);
 8003008:	2312      	movs	r3, #18
 800300a:	800b      	strh	r3, [r1, #0]
  return USBD_FS_DeviceDesc;
}
 800300c:	4800      	ldr	r0, [pc, #0]	; (8003010 <USBD_FS_DeviceDescriptor+0x8>)
 800300e:	4770      	bx	lr
 8003010:	20000168 	.word	0x20000168

08003014 <USBD_FS_LangIDStrDescriptor>:
  * @param  length : Pointer to data length variable
  * @retval Pointer to descriptor buffer
  */
uint8_t * USBD_FS_LangIDStrDescriptor(USBD_SpeedTypeDef speed, uint16_t *length)
{
  *length = sizeof(USBD_LangIDDesc);
 8003014:	2304      	movs	r3, #4
 8003016:	800b      	strh	r3, [r1, #0]
  return USBD_LangIDDesc;
}
 8003018:	4800      	ldr	r0, [pc, #0]	; (800301c <USBD_FS_LangIDStrDescriptor+0x8>)
 800301a:	4770      	bx	lr
 800301c:	2000017c 	.word	0x2000017c

08003020 <USBD_FS_USR_BOSDescriptor>:
  * @param  length : Pointer to data length variable
  * @retval Pointer to descriptor buffer
  */
uint8_t * USBD_FS_USR_BOSDescriptor(USBD_SpeedTypeDef speed, uint16_t *length)
{
  *length = sizeof(USBD_FS_BOSDesc);
 8003020:	230c      	movs	r3, #12
 8003022:	800b      	strh	r3, [r1, #0]
  return (uint8_t*)USBD_FS_BOSDesc;
}
 8003024:	4800      	ldr	r0, [pc, #0]	; (8003028 <USBD_FS_USR_BOSDescriptor+0x8>)
 8003026:	4770      	bx	lr
 8003028:	2000015c 	.word	0x2000015c

0800302c <USBD_FS_ManufacturerStrDescriptor>:
{
 800302c:	b510      	push	{r4, lr}
  USBD_GetString((uint8_t *)USBD_MANUFACTURER_STRING, USBD_StrDesc, length);
 800302e:	4c04      	ldr	r4, [pc, #16]	; (8003040 <USBD_FS_ManufacturerStrDescriptor+0x14>)
 8003030:	4804      	ldr	r0, [pc, #16]	; (8003044 <USBD_FS_ManufacturerStrDescriptor+0x18>)
 8003032:	460a      	mov	r2, r1
 8003034:	4621      	mov	r1, r4
 8003036:	f7ff fcd9 	bl	80029ec <USBD_GetString>
}
 800303a:	4620      	mov	r0, r4
 800303c:	bd10      	pop	{r4, pc}
 800303e:	bf00      	nop
 8003040:	2000083c 	.word	0x2000083c
 8003044:	08003364 	.word	0x08003364

08003048 <USBD_FS_ProductStrDescriptor>:
{
 8003048:	b510      	push	{r4, lr}
    USBD_GetString((uint8_t *)USBD_PRODUCT_STRING_FS, USBD_StrDesc, length);
 800304a:	4c04      	ldr	r4, [pc, #16]	; (800305c <USBD_FS_ProductStrDescriptor+0x14>)
 800304c:	4804      	ldr	r0, [pc, #16]	; (8003060 <USBD_FS_ProductStrDescriptor+0x18>)
 800304e:	460a      	mov	r2, r1
 8003050:	4621      	mov	r1, r4
 8003052:	f7ff fccb 	bl	80029ec <USBD_GetString>
}
 8003056:	4620      	mov	r0, r4
 8003058:	bd10      	pop	{r4, pc}
 800305a:	bf00      	nop
 800305c:	2000083c 	.word	0x2000083c
 8003060:	08003377 	.word	0x08003377

08003064 <USBD_FS_SerialStrDescriptor>:
{
 8003064:	b510      	push	{r4, lr}
    USBD_GetString((uint8_t *)USBD_SERIALNUMBER_STRING_FS, USBD_StrDesc, length);
 8003066:	4c04      	ldr	r4, [pc, #16]	; (8003078 <USBD_FS_SerialStrDescriptor+0x14>)
 8003068:	4804      	ldr	r0, [pc, #16]	; (800307c <USBD_FS_SerialStrDescriptor+0x18>)
 800306a:	460a      	mov	r2, r1
 800306c:	4621      	mov	r1, r4
 800306e:	f7ff fcbd 	bl	80029ec <USBD_GetString>
}
 8003072:	4620      	mov	r0, r4
 8003074:	bd10      	pop	{r4, pc}
 8003076:	bf00      	nop
 8003078:	2000083c 	.word	0x2000083c
 800307c:	0800338d 	.word	0x0800338d

08003080 <USBD_FS_ConfigStrDescriptor>:
{
 8003080:	b510      	push	{r4, lr}
    USBD_GetString((uint8_t *)USBD_CONFIGURATION_STRING_FS, USBD_StrDesc, length);
 8003082:	4c04      	ldr	r4, [pc, #16]	; (8003094 <USBD_FS_ConfigStrDescriptor+0x14>)
 8003084:	4804      	ldr	r0, [pc, #16]	; (8003098 <USBD_FS_ConfigStrDescriptor+0x18>)
 8003086:	460a      	mov	r2, r1
 8003088:	4621      	mov	r1, r4
 800308a:	f7ff fcaf 	bl	80029ec <USBD_GetString>
}
 800308e:	4620      	mov	r0, r4
 8003090:	bd10      	pop	{r4, pc}
 8003092:	bf00      	nop
 8003094:	2000083c 	.word	0x2000083c
 8003098:	0800334b 	.word	0x0800334b

0800309c <USBD_FS_InterfaceStrDescriptor>:
{
 800309c:	b510      	push	{r4, lr}
    USBD_GetString((uint8_t *)USBD_INTERFACE_STRING_FS, USBD_StrDesc, length);
 800309e:	4c04      	ldr	r4, [pc, #16]	; (80030b0 <USBD_FS_InterfaceStrDescriptor+0x14>)
 80030a0:	4804      	ldr	r0, [pc, #16]	; (80030b4 <USBD_FS_InterfaceStrDescriptor+0x18>)
 80030a2:	460a      	mov	r2, r1
 80030a4:	4621      	mov	r1, r4
 80030a6:	f7ff fca1 	bl	80029ec <USBD_GetString>
}
 80030aa:	4620      	mov	r0, r4
 80030ac:	bd10      	pop	{r4, pc}
 80030ae:	bf00      	nop
 80030b0:	2000083c 	.word	0x2000083c
 80030b4:	08003356 	.word	0x08003356

080030b8 <Reset_Handler>:

    .section  .text.Reset_Handler
  .weak  Reset_Handler
  .type  Reset_Handler, %function
Reset_Handler:  
  ldr   sp, =_estack      /* set stack pointer */
 80030b8:	f8df d034 	ldr.w	sp, [pc, #52]	; 80030f0 <LoopFillZerobss+0x14>

/* Copy the data segment initializers from flash to SRAM */  
  movs  r1, #0
 80030bc:	2100      	movs	r1, #0
  b  LoopCopyDataInit
 80030be:	e003      	b.n	80030c8 <LoopCopyDataInit>

080030c0 <CopyDataInit>:

CopyDataInit:
  ldr  r3, =_sidata
 80030c0:	4b0c      	ldr	r3, [pc, #48]	; (80030f4 <LoopFillZerobss+0x18>)
  ldr  r3, [r3, r1]
 80030c2:	585b      	ldr	r3, [r3, r1]
  str  r3, [r0, r1]
 80030c4:	5043      	str	r3, [r0, r1]
  adds  r1, r1, #4
 80030c6:	3104      	adds	r1, #4

080030c8 <LoopCopyDataInit>:
    
LoopCopyDataInit:
  ldr  r0, =_sdata
 80030c8:	480b      	ldr	r0, [pc, #44]	; (80030f8 <LoopFillZerobss+0x1c>)
  ldr  r3, =_edata
 80030ca:	4b0c      	ldr	r3, [pc, #48]	; (80030fc <LoopFillZerobss+0x20>)
  adds  r2, r0, r1
 80030cc:	1842      	adds	r2, r0, r1
  cmp  r2, r3
 80030ce:	429a      	cmp	r2, r3
  bcc  CopyDataInit
 80030d0:	d3f6      	bcc.n	80030c0 <CopyDataInit>
  ldr  r2, =_sbss
 80030d2:	4a0b      	ldr	r2, [pc, #44]	; (8003100 <LoopFillZerobss+0x24>)
  b  LoopFillZerobss
 80030d4:	e002      	b.n	80030dc <LoopFillZerobss>

080030d6 <FillZerobss>:
/* Zero fill the bss segment. */  
FillZerobss:
  movs  r3, #0
 80030d6:	2300      	movs	r3, #0
  str  r3, [r2], #4
 80030d8:	f842 3b04 	str.w	r3, [r2], #4

080030dc <LoopFillZerobss>:
    
LoopFillZerobss:
  ldr  r3, = _ebss
 80030dc:	4b09      	ldr	r3, [pc, #36]	; (8003104 <LoopFillZerobss+0x28>)
  cmp  r2, r3
 80030de:	429a      	cmp	r2, r3
  bcc  FillZerobss
 80030e0:	d3f9      	bcc.n	80030d6 <FillZerobss>

/* Call the clock system intitialization function.*/
  bl  SystemInit   
 80030e2:	f7ff fddf 	bl	8002ca4 <SystemInit>
/* Call static constructors */
    bl __libc_init_array
 80030e6:	f000 f811 	bl	800310c <__libc_init_array>
/* Call the application's entry point.*/
  bl  main
 80030ea:	f7ff fd31 	bl	8002b50 <main>
  bx  lr    
 80030ee:	4770      	bx	lr
  ldr   sp, =_estack      /* set stack pointer */
 80030f0:	20020000 	.word	0x20020000
  ldr  r3, =_sidata
 80030f4:	080033ac 	.word	0x080033ac
  ldr  r0, =_sdata
 80030f8:	20000000 	.word	0x20000000
  ldr  r3, =_edata
 80030fc:	200001e4 	.word	0x200001e4
  ldr  r2, =_sbss
 8003100:	200001e4 	.word	0x200001e4
  ldr  r3, = _ebss
 8003104:	20000a40 	.word	0x20000a40

08003108 <ADC_IRQHandler>:
 * @retval None       
*/
    .section  .text.Default_Handler,"ax",%progbits
Default_Handler:
Infinite_Loop:
  b  Infinite_Loop
 8003108:	e7fe      	b.n	8003108 <ADC_IRQHandler>
	...

0800310c <__libc_init_array>:
 800310c:	b570      	push	{r4, r5, r6, lr}
 800310e:	4e0d      	ldr	r6, [pc, #52]	; (8003144 <__libc_init_array+0x38>)
 8003110:	4c0d      	ldr	r4, [pc, #52]	; (8003148 <__libc_init_array+0x3c>)
 8003112:	1ba4      	subs	r4, r4, r6
 8003114:	10a4      	asrs	r4, r4, #2
 8003116:	2500      	movs	r5, #0
 8003118:	42a5      	cmp	r5, r4
 800311a:	d109      	bne.n	8003130 <__libc_init_array+0x24>
 800311c:	4e0b      	ldr	r6, [pc, #44]	; (800314c <__libc_init_array+0x40>)
 800311e:	4c0c      	ldr	r4, [pc, #48]	; (8003150 <__libc_init_array+0x44>)
 8003120:	f000 f8f4 	bl	800330c <_init>
 8003124:	1ba4      	subs	r4, r4, r6
 8003126:	10a4      	asrs	r4, r4, #2
 8003128:	2500      	movs	r5, #0
 800312a:	42a5      	cmp	r5, r4
 800312c:	d105      	bne.n	800313a <__libc_init_array+0x2e>
 800312e:	bd70      	pop	{r4, r5, r6, pc}
 8003130:	f856 3025 	ldr.w	r3, [r6, r5, lsl #2]
 8003134:	4798      	blx	r3
 8003136:	3501      	adds	r5, #1
 8003138:	e7ee      	b.n	8003118 <__libc_init_array+0xc>
 800313a:	f856 3025 	ldr.w	r3, [r6, r5, lsl #2]
 800313e:	4798      	blx	r3
 8003140:	3501      	adds	r5, #1
 8003142:	e7f2      	b.n	800312a <__libc_init_array+0x1e>
 8003144:	080033a4 	.word	0x080033a4
 8003148:	080033a4 	.word	0x080033a4
 800314c:	080033a4 	.word	0x080033a4
 8003150:	080033a8 	.word	0x080033a8

08003154 <malloc>:
 8003154:	4b02      	ldr	r3, [pc, #8]	; (8003160 <malloc+0xc>)
 8003156:	4601      	mov	r1, r0
 8003158:	6818      	ldr	r0, [r3, #0]
 800315a:	f000 b859 	b.w	8003210 <_malloc_r>
 800315e:	bf00      	nop
 8003160:	20000180 	.word	0x20000180

08003164 <free>:
 8003164:	4b02      	ldr	r3, [pc, #8]	; (8003170 <free+0xc>)
 8003166:	4601      	mov	r1, r0
 8003168:	6818      	ldr	r0, [r3, #0]
 800316a:	f000 b803 	b.w	8003174 <_free_r>
 800316e:	bf00      	nop
 8003170:	20000180 	.word	0x20000180

08003174 <_free_r>:
 8003174:	b538      	push	{r3, r4, r5, lr}
 8003176:	4605      	mov	r5, r0
 8003178:	2900      	cmp	r1, #0
 800317a:	d045      	beq.n	8003208 <_free_r+0x94>
 800317c:	f851 3c04 	ldr.w	r3, [r1, #-4]
 8003180:	1f0c      	subs	r4, r1, #4
 8003182:	2b00      	cmp	r3, #0
 8003184:	bfb8      	it	lt
 8003186:	18e4      	addlt	r4, r4, r3
 8003188:	f000 f8b0 	bl	80032ec <__malloc_lock>
 800318c:	4a1f      	ldr	r2, [pc, #124]	; (800320c <_free_r+0x98>)
 800318e:	6813      	ldr	r3, [r2, #0]
 8003190:	4610      	mov	r0, r2
 8003192:	b933      	cbnz	r3, 80031a2 <_free_r+0x2e>
 8003194:	6063      	str	r3, [r4, #4]
 8003196:	6014      	str	r4, [r2, #0]
 8003198:	4628      	mov	r0, r5
 800319a:	e8bd 4038 	ldmia.w	sp!, {r3, r4, r5, lr}
 800319e:	f000 b8a6 	b.w	80032ee <__malloc_unlock>
 80031a2:	42a3      	cmp	r3, r4
 80031a4:	d90c      	bls.n	80031c0 <_free_r+0x4c>
 80031a6:	6821      	ldr	r1, [r4, #0]
 80031a8:	1862      	adds	r2, r4, r1
 80031aa:	4293      	cmp	r3, r2
 80031ac:	bf04      	itt	eq
 80031ae:	681a      	ldreq	r2, [r3, #0]
 80031b0:	685b      	ldreq	r3, [r3, #4]
 80031b2:	6063      	str	r3, [r4, #4]
 80031b4:	bf04      	itt	eq
 80031b6:	1852      	addeq	r2, r2, r1
 80031b8:	6022      	streq	r2, [r4, #0]
 80031ba:	6004      	str	r4, [r0, #0]
 80031bc:	e7ec      	b.n	8003198 <_free_r+0x24>
 80031be:	4613      	mov	r3, r2
 80031c0:	685a      	ldr	r2, [r3, #4]
 80031c2:	b10a      	cbz	r2, 80031c8 <_free_r+0x54>
 80031c4:	42a2      	cmp	r2, r4
 80031c6:	d9fa      	bls.n	80031be <_free_r+0x4a>
 80031c8:	6819      	ldr	r1, [r3, #0]
 80031ca:	1858      	adds	r0, r3, r1
 80031cc:	42a0      	cmp	r0, r4
 80031ce:	d10b      	bne.n	80031e8 <_free_r+0x74>
 80031d0:	6820      	ldr	r0, [r4, #0]
 80031d2:	4401      	add	r1, r0
 80031d4:	1858      	adds	r0, r3, r1
 80031d6:	4282      	cmp	r2, r0
 80031d8:	6019      	str	r1, [r3, #0]
 80031da:	d1dd      	bne.n	8003198 <_free_r+0x24>
 80031dc:	6810      	ldr	r0, [r2, #0]
 80031de:	6852      	ldr	r2, [r2, #4]
 80031e0:	605a      	str	r2, [r3, #4]
 80031e2:	4401      	add	r1, r0
 80031e4:	6019      	str	r1, [r3, #0]
 80031e6:	e7d7      	b.n	8003198 <_free_r+0x24>
 80031e8:	d902      	bls.n	80031f0 <_free_r+0x7c>
 80031ea:	230c      	movs	r3, #12
 80031ec:	602b      	str	r3, [r5, #0]
 80031ee:	e7d3      	b.n	8003198 <_free_r+0x24>
 80031f0:	6820      	ldr	r0, [r4, #0]
 80031f2:	1821      	adds	r1, r4, r0
 80031f4:	428a      	cmp	r2, r1
 80031f6:	bf04      	itt	eq
 80031f8:	6811      	ldreq	r1, [r2, #0]
 80031fa:	6852      	ldreq	r2, [r2, #4]
 80031fc:	6062      	str	r2, [r4, #4]
 80031fe:	bf04      	itt	eq
 8003200:	1809      	addeq	r1, r1, r0
 8003202:	6021      	streq	r1, [r4, #0]
 8003204:	605c      	str	r4, [r3, #4]
 8003206:	e7c7      	b.n	8003198 <_free_r+0x24>
 8003208:	bd38      	pop	{r3, r4, r5, pc}
 800320a:	bf00      	nop
 800320c:	20000204 	.word	0x20000204

08003210 <_malloc_r>:
 8003210:	b570      	push	{r4, r5, r6, lr}
 8003212:	1ccd      	adds	r5, r1, #3
 8003214:	f025 0503 	bic.w	r5, r5, #3
 8003218:	3508      	adds	r5, #8
 800321a:	2d0c      	cmp	r5, #12
 800321c:	bf38      	it	cc
 800321e:	250c      	movcc	r5, #12
 8003220:	2d00      	cmp	r5, #0
 8003222:	4606      	mov	r6, r0
 8003224:	db01      	blt.n	800322a <_malloc_r+0x1a>
 8003226:	42a9      	cmp	r1, r5
 8003228:	d903      	bls.n	8003232 <_malloc_r+0x22>
 800322a:	230c      	movs	r3, #12
 800322c:	6033      	str	r3, [r6, #0]
 800322e:	2000      	movs	r0, #0
 8003230:	bd70      	pop	{r4, r5, r6, pc}
 8003232:	f000 f85b 	bl	80032ec <__malloc_lock>
 8003236:	4a23      	ldr	r2, [pc, #140]	; (80032c4 <_malloc_r+0xb4>)
 8003238:	6814      	ldr	r4, [r2, #0]
 800323a:	4621      	mov	r1, r4
 800323c:	b991      	cbnz	r1, 8003264 <_malloc_r+0x54>
 800323e:	4c22      	ldr	r4, [pc, #136]	; (80032c8 <_malloc_r+0xb8>)
 8003240:	6823      	ldr	r3, [r4, #0]
 8003242:	b91b      	cbnz	r3, 800324c <_malloc_r+0x3c>
 8003244:	4630      	mov	r0, r6
 8003246:	f000 f841 	bl	80032cc <_sbrk_r>
 800324a:	6020      	str	r0, [r4, #0]
 800324c:	4629      	mov	r1, r5
 800324e:	4630      	mov	r0, r6
 8003250:	f000 f83c 	bl	80032cc <_sbrk_r>
 8003254:	1c43      	adds	r3, r0, #1
 8003256:	d126      	bne.n	80032a6 <_malloc_r+0x96>
 8003258:	230c      	movs	r3, #12
 800325a:	6033      	str	r3, [r6, #0]
 800325c:	4630      	mov	r0, r6
 800325e:	f000 f846 	bl	80032ee <__malloc_unlock>
 8003262:	e7e4      	b.n	800322e <_malloc_r+0x1e>
 8003264:	680b      	ldr	r3, [r1, #0]
 8003266:	1b5b      	subs	r3, r3, r5
 8003268:	d41a      	bmi.n	80032a0 <_malloc_r+0x90>
 800326a:	2b0b      	cmp	r3, #11
 800326c:	d90f      	bls.n	800328e <_malloc_r+0x7e>
 800326e:	600b      	str	r3, [r1, #0]
 8003270:	50cd      	str	r5, [r1, r3]
 8003272:	18cc      	adds	r4, r1, r3
 8003274:	4630      	mov	r0, r6
 8003276:	f000 f83a 	bl	80032ee <__malloc_unlock>
 800327a:	f104 000b 	add.w	r0, r4, #11
 800327e:	1d23      	adds	r3, r4, #4
 8003280:	f020 0007 	bic.w	r0, r0, #7
 8003284:	1ac3      	subs	r3, r0, r3
 8003286:	d01b      	beq.n	80032c0 <_malloc_r+0xb0>
 8003288:	425a      	negs	r2, r3
 800328a:	50e2      	str	r2, [r4, r3]
 800328c:	bd70      	pop	{r4, r5, r6, pc}
 800328e:	428c      	cmp	r4, r1
 8003290:	bf0d      	iteet	eq
 8003292:	6863      	ldreq	r3, [r4, #4]
 8003294:	684b      	ldrne	r3, [r1, #4]
 8003296:	6063      	strne	r3, [r4, #4]
 8003298:	6013      	streq	r3, [r2, #0]
 800329a:	bf18      	it	ne
 800329c:	460c      	movne	r4, r1
 800329e:	e7e9      	b.n	8003274 <_malloc_r+0x64>
 80032a0:	460c      	mov	r4, r1
 80032a2:	6849      	ldr	r1, [r1, #4]
 80032a4:	e7ca      	b.n	800323c <_malloc_r+0x2c>
 80032a6:	1cc4      	adds	r4, r0, #3
 80032a8:	f024 0403 	bic.w	r4, r4, #3
 80032ac:	42a0      	cmp	r0, r4
 80032ae:	d005      	beq.n	80032bc <_malloc_r+0xac>
 80032b0:	1a21      	subs	r1, r4, r0
 80032b2:	4630      	mov	r0, r6
 80032b4:	f000 f80a 	bl	80032cc <_sbrk_r>
 80032b8:	3001      	adds	r0, #1
 80032ba:	d0cd      	beq.n	8003258 <_malloc_r+0x48>
 80032bc:	6025      	str	r5, [r4, #0]
 80032be:	e7d9      	b.n	8003274 <_malloc_r+0x64>
 80032c0:	bd70      	pop	{r4, r5, r6, pc}
 80032c2:	bf00      	nop
 80032c4:	20000204 	.word	0x20000204
 80032c8:	20000208 	.word	0x20000208

080032cc <_sbrk_r>:
 80032cc:	b538      	push	{r3, r4, r5, lr}
 80032ce:	4c06      	ldr	r4, [pc, #24]	; (80032e8 <_sbrk_r+0x1c>)
 80032d0:	2300      	movs	r3, #0
 80032d2:	4605      	mov	r5, r0
 80032d4:	4608      	mov	r0, r1
 80032d6:	6023      	str	r3, [r4, #0]
 80032d8:	f000 f80a 	bl	80032f0 <_sbrk>
 80032dc:	1c43      	adds	r3, r0, #1
 80032de:	d102      	bne.n	80032e6 <_sbrk_r+0x1a>
 80032e0:	6823      	ldr	r3, [r4, #0]
 80032e2:	b103      	cbz	r3, 80032e6 <_sbrk_r+0x1a>
 80032e4:	602b      	str	r3, [r5, #0]
 80032e6:	bd38      	pop	{r3, r4, r5, pc}
 80032e8:	20000a3c 	.word	0x20000a3c

080032ec <__malloc_lock>:
 80032ec:	4770      	bx	lr

080032ee <__malloc_unlock>:
 80032ee:	4770      	bx	lr

080032f0 <_sbrk>:
 80032f0:	4b04      	ldr	r3, [pc, #16]	; (8003304 <_sbrk+0x14>)
 80032f2:	6819      	ldr	r1, [r3, #0]
 80032f4:	4602      	mov	r2, r0
 80032f6:	b909      	cbnz	r1, 80032fc <_sbrk+0xc>
 80032f8:	4903      	ldr	r1, [pc, #12]	; (8003308 <_sbrk+0x18>)
 80032fa:	6019      	str	r1, [r3, #0]
 80032fc:	6818      	ldr	r0, [r3, #0]
 80032fe:	4402      	add	r2, r0
 8003300:	601a      	str	r2, [r3, #0]
 8003302:	4770      	bx	lr
 8003304:	2000020c 	.word	0x2000020c
 8003308:	20000a40 	.word	0x20000a40

0800330c <_init>:
 800330c:	b5f8      	push	{r3, r4, r5, r6, r7, lr}
 800330e:	bf00      	nop
 8003310:	bcf8      	pop	{r3, r4, r5, r6, r7}
 8003312:	bc08      	pop	{r3}
 8003314:	469e      	mov	lr, r3
 8003316:	4770      	bx	lr

08003318 <_fini>:
 8003318:	b5f8      	push	{r3, r4, r5, r6, r7, lr}
 800331a:	bf00      	nop
 800331c:	bcf8      	pop	{r3, r4, r5, r6, r7}
 800331e:	bc08      	pop	{r3}
 8003320:	469e      	mov	lr, r3
 8003322:	4770      	bx	lr
